
Drivers.elf:     file format elf32-avr

Sections:
Idx Name          Size      VMA       LMA       File off  Algn
  0 .text         0000053a  00000000  00000000  00000074  2**1
                  CONTENTS, ALLOC, LOAD, READONLY, CODE
  1 .data         00000000  00800060  00800060  000005ae  2**0
                  CONTENTS, ALLOC, LOAD, DATA
  2 .bss          00000006  00800060  00800060  000005ae  2**0
                  ALLOC
  3 .comment      00000030  00000000  00000000  000005ae  2**0
                  CONTENTS, READONLY
  4 .note.gnu.avr.deviceinfo 0000003c  00000000  00000000  000005e0  2**2
                  CONTENTS, READONLY
  5 .debug_aranges 00000168  00000000  00000000  0000061c  2**0
                  CONTENTS, READONLY, DEBUGGING
  6 .debug_info   000015f5  00000000  00000000  00000784  2**0
                  CONTENTS, READONLY, DEBUGGING
  7 .debug_abbrev 00000ab2  00000000  00000000  00001d79  2**0
                  CONTENTS, READONLY, DEBUGGING
  8 .debug_line   00000bac  00000000  00000000  0000282b  2**0
                  CONTENTS, READONLY, DEBUGGING
  9 .debug_frame  000003d8  00000000  00000000  000033d8  2**2
                  CONTENTS, READONLY, DEBUGGING
 10 .debug_str    000006a5  00000000  00000000  000037b0  2**0
                  CONTENTS, READONLY, DEBUGGING
 11 .debug_loc    000009f2  00000000  00000000  00003e55  2**0
                  CONTENTS, READONLY, DEBUGGING
 12 .debug_ranges 00000118  00000000  00000000  00004847  2**0
                  CONTENTS, READONLY, DEBUGGING

Disassembly of section .text:

00000000 <__vectors>:
   0:	0c 94 2a 00 	jmp	0x54	; 0x54 <__ctors_end>
   4:	0c 94 ba 01 	jmp	0x374	; 0x374 <__vector_1>
   8:	0c 94 e1 01 	jmp	0x3c2	; 0x3c2 <__vector_2>
   c:	0c 94 08 02 	jmp	0x410	; 0x410 <__vector_3>
  10:	0c 94 3c 00 	jmp	0x78	; 0x78 <__bad_interrupt>
  14:	0c 94 3c 00 	jmp	0x78	; 0x78 <__bad_interrupt>
  18:	0c 94 3c 00 	jmp	0x78	; 0x78 <__bad_interrupt>
  1c:	0c 94 3c 00 	jmp	0x78	; 0x78 <__bad_interrupt>
  20:	0c 94 3c 00 	jmp	0x78	; 0x78 <__bad_interrupt>
  24:	0c 94 3c 00 	jmp	0x78	; 0x78 <__bad_interrupt>
  28:	0c 94 3c 00 	jmp	0x78	; 0x78 <__bad_interrupt>
  2c:	0c 94 3c 00 	jmp	0x78	; 0x78 <__bad_interrupt>
  30:	0c 94 3c 00 	jmp	0x78	; 0x78 <__bad_interrupt>
  34:	0c 94 3c 00 	jmp	0x78	; 0x78 <__bad_interrupt>
  38:	0c 94 3c 00 	jmp	0x78	; 0x78 <__bad_interrupt>
  3c:	0c 94 3c 00 	jmp	0x78	; 0x78 <__bad_interrupt>
  40:	0c 94 3c 00 	jmp	0x78	; 0x78 <__bad_interrupt>
  44:	0c 94 3c 00 	jmp	0x78	; 0x78 <__bad_interrupt>
  48:	0c 94 3c 00 	jmp	0x78	; 0x78 <__bad_interrupt>
  4c:	0c 94 3c 00 	jmp	0x78	; 0x78 <__bad_interrupt>
  50:	0c 94 3c 00 	jmp	0x78	; 0x78 <__bad_interrupt>

00000054 <__ctors_end>:
  54:	11 24       	eor	r1, r1
  56:	1f be       	out	0x3f, r1	; 63
  58:	cf e5       	ldi	r28, 0x5F	; 95
  5a:	d8 e0       	ldi	r29, 0x08	; 8
  5c:	de bf       	out	0x3e, r29	; 62
  5e:	cd bf       	out	0x3d, r28	; 61

00000060 <__do_clear_bss>:
  60:	20 e0       	ldi	r18, 0x00	; 0
  62:	a0 e6       	ldi	r26, 0x60	; 96
  64:	b0 e0       	ldi	r27, 0x00	; 0
  66:	01 c0       	rjmp	.+2      	; 0x6a <.do_clear_bss_start>

00000068 <.do_clear_bss_loop>:
  68:	1d 92       	st	X+, r1

0000006a <.do_clear_bss_start>:
  6a:	a6 36       	cpi	r26, 0x66	; 102
  6c:	b2 07       	cpc	r27, r18
  6e:	e1 f7       	brne	.-8      	; 0x68 <.do_clear_bss_loop>
  70:	0e 94 9f 01 	call	0x33e	; 0x33e <main>
  74:	0c 94 9b 02 	jmp	0x536	; 0x536 <_exit>

00000078 <__bad_interrupt>:
  78:	0c 94 00 00 	jmp	0	; 0x0 <__vectors>

0000007c <LCD_IO_init>:





void LCD_IO_init(){
  7c:	1f 93       	push	r17
  7e:	cf 93       	push	r28
  80:	df 93       	push	r29
  82:	00 d0       	rcall	.+0      	; 0x84 <LCD_IO_init+0x8>
  84:	cd b7       	in	r28, 0x3d	; 61
  86:	de b7       	in	r29, 0x3e	; 62
	IO_Configure_Pin_t PinNumber_Configuration;

	//init  Control pins as output
	PinNumber_Configuration.IO_Pin_Number = Register_Select;
  88:	12 e0       	ldi	r17, 0x02	; 2
  8a:	19 83       	std	Y+1, r17	; 0x01
	PinNumber_Configuration.IO_Mode = output_Low;
  8c:	1a 83       	std	Y+2, r17	; 0x02
	MCAL_IO_Init(IOB, &PinNumber_Configuration);
  8e:	be 01       	movw	r22, r28
  90:	6f 5f       	subi	r22, 0xFF	; 255
  92:	7f 4f       	sbci	r23, 0xFF	; 255
  94:	86 e3       	ldi	r24, 0x36	; 54
  96:	90 e0       	ldi	r25, 0x00	; 0
  98:	0e 94 2f 02 	call	0x45e	; 0x45e <MCAL_IO_Init>

	PinNumber_Configuration.IO_Pin_Number = Read_Write;
  9c:	84 e0       	ldi	r24, 0x04	; 4
  9e:	89 83       	std	Y+1, r24	; 0x01
	PinNumber_Configuration.IO_Mode = output_Low;
  a0:	1a 83       	std	Y+2, r17	; 0x02
	MCAL_IO_Init(IOB, &PinNumber_Configuration);
  a2:	be 01       	movw	r22, r28
  a4:	6f 5f       	subi	r22, 0xFF	; 255
  a6:	7f 4f       	sbci	r23, 0xFF	; 255
  a8:	86 e3       	ldi	r24, 0x36	; 54
  aa:	90 e0       	ldi	r25, 0x00	; 0
  ac:	0e 94 2f 02 	call	0x45e	; 0x45e <MCAL_IO_Init>

	PinNumber_Configuration.IO_Pin_Number = Enable;
  b0:	88 e0       	ldi	r24, 0x08	; 8
  b2:	89 83       	std	Y+1, r24	; 0x01
	PinNumber_Configuration.IO_Mode = output_Low;
  b4:	1a 83       	std	Y+2, r17	; 0x02
	MCAL_IO_Init(IOB, &PinNumber_Configuration);
  b6:	be 01       	movw	r22, r28
  b8:	6f 5f       	subi	r22, 0xFF	; 255
  ba:	7f 4f       	sbci	r23, 0xFF	; 255
  bc:	86 e3       	ldi	r24, 0x36	; 54
  be:	90 e0       	ldi	r25, 0x00	; 0
  c0:	0e 94 2f 02 	call	0x45e	; 0x45e <MCAL_IO_Init>



	//init  Data pins as low output
	PinNumber_Configuration.IO_Pin_Number = IO_PIN4;
  c4:	80 e1       	ldi	r24, 0x10	; 16
  c6:	89 83       	std	Y+1, r24	; 0x01
	PinNumber_Configuration.IO_Mode = output_Low;
  c8:	1a 83       	std	Y+2, r17	; 0x02
	MCAL_IO_Init(IOA, &PinNumber_Configuration);
  ca:	be 01       	movw	r22, r28
  cc:	6f 5f       	subi	r22, 0xFF	; 255
  ce:	7f 4f       	sbci	r23, 0xFF	; 255
  d0:	89 e3       	ldi	r24, 0x39	; 57
  d2:	90 e0       	ldi	r25, 0x00	; 0
  d4:	0e 94 2f 02 	call	0x45e	; 0x45e <MCAL_IO_Init>

	PinNumber_Configuration.IO_Pin_Number = IO_PIN5;
  d8:	80 e2       	ldi	r24, 0x20	; 32
  da:	89 83       	std	Y+1, r24	; 0x01
	PinNumber_Configuration.IO_Mode = output_Low;
  dc:	1a 83       	std	Y+2, r17	; 0x02
	MCAL_IO_Init(IOA, &PinNumber_Configuration);
  de:	be 01       	movw	r22, r28
  e0:	6f 5f       	subi	r22, 0xFF	; 255
  e2:	7f 4f       	sbci	r23, 0xFF	; 255
  e4:	89 e3       	ldi	r24, 0x39	; 57
  e6:	90 e0       	ldi	r25, 0x00	; 0
  e8:	0e 94 2f 02 	call	0x45e	; 0x45e <MCAL_IO_Init>

	PinNumber_Configuration.IO_Pin_Number = IO_PIN6;
  ec:	80 e4       	ldi	r24, 0x40	; 64
  ee:	89 83       	std	Y+1, r24	; 0x01
	PinNumber_Configuration.IO_Mode = output_Low;
  f0:	1a 83       	std	Y+2, r17	; 0x02
	MCAL_IO_Init(IOA, &PinNumber_Configuration);
  f2:	be 01       	movw	r22, r28
  f4:	6f 5f       	subi	r22, 0xFF	; 255
  f6:	7f 4f       	sbci	r23, 0xFF	; 255
  f8:	89 e3       	ldi	r24, 0x39	; 57
  fa:	90 e0       	ldi	r25, 0x00	; 0
  fc:	0e 94 2f 02 	call	0x45e	; 0x45e <MCAL_IO_Init>

	PinNumber_Configuration.IO_Pin_Number = IO_PIN7;
 100:	80 e8       	ldi	r24, 0x80	; 128
 102:	89 83       	std	Y+1, r24	; 0x01
	PinNumber_Configuration.IO_Mode = output_Low;
 104:	1a 83       	std	Y+2, r17	; 0x02
	MCAL_IO_Init(IOA, &PinNumber_Configuration);
 106:	be 01       	movw	r22, r28
 108:	6f 5f       	subi	r22, 0xFF	; 255
 10a:	7f 4f       	sbci	r23, 0xFF	; 255
 10c:	89 e3       	ldi	r24, 0x39	; 57
 10e:	90 e0       	ldi	r25, 0x00	; 0
 110:	0e 94 2f 02 	call	0x45e	; 0x45e <MCAL_IO_Init>



	// write 0 om control pins
	MCAL_IO_WritePin(IOB, Enable, RESET_PIN);
 114:	40 e0       	ldi	r20, 0x00	; 0
 116:	68 e0       	ldi	r22, 0x08	; 8
 118:	86 e3       	ldi	r24, 0x36	; 54
 11a:	90 e0       	ldi	r25, 0x00	; 0
 11c:	0e 94 61 02 	call	0x4c2	; 0x4c2 <MCAL_IO_WritePin>
	MCAL_IO_WritePin(IOB, Register_Select, RESET_PIN);
 120:	40 e0       	ldi	r20, 0x00	; 0
 122:	62 e0       	ldi	r22, 0x02	; 2
 124:	86 e3       	ldi	r24, 0x36	; 54
 126:	90 e0       	ldi	r25, 0x00	; 0
 128:	0e 94 61 02 	call	0x4c2	; 0x4c2 <MCAL_IO_WritePin>
	MCAL_IO_WritePin(IOB, Read_Write, RESET_PIN);
 12c:	40 e0       	ldi	r20, 0x00	; 0
 12e:	64 e0       	ldi	r22, 0x04	; 4
 130:	86 e3       	ldi	r24, 0x36	; 54
 132:	90 e0       	ldi	r25, 0x00	; 0
 134:	0e 94 61 02 	call	0x4c2	; 0x4c2 <MCAL_IO_WritePin>
	
}
 138:	0f 90       	pop	r0
 13a:	0f 90       	pop	r0
 13c:	df 91       	pop	r29
 13e:	cf 91       	pop	r28
 140:	1f 91       	pop	r17
 142:	08 95       	ret

00000144 <Send_Pulse_toLCD>:
	Write_Command_onLCD(LCD_BEGIN_AT_FIRST_ROW);
	Write_Command_onLCD(LCD_DISP_ON_CURSOR_BLINK);
}

void Send_Pulse_toLCD(void){
	MCAL_IO_WritePin(LCD_CONTROL_PORTS, Enable, RESET_PIN);
 144:	40 e0       	ldi	r20, 0x00	; 0
 146:	68 e0       	ldi	r22, 0x08	; 8
 148:	86 e3       	ldi	r24, 0x36	; 54
 14a:	90 e0       	ldi	r25, 0x00	; 0
 14c:	0e 94 61 02 	call	0x4c2	; 0x4c2 <MCAL_IO_WritePin>
	_delay_ms(2);
 150:	20 e0       	ldi	r18, 0x00	; 0
 152:	30 e0       	ldi	r19, 0x00	; 0
 154:	09 c0       	rjmp	.+18     	; 0x168 <Send_Pulse_toLCD+0x24>
 156:	01 96       	adiw	r24, 0x01	; 1
 158:	02 c0       	rjmp	.+4      	; 0x15e <Send_Pulse_toLCD+0x1a>
 15a:	80 e0       	ldi	r24, 0x00	; 0
 15c:	90 e0       	ldi	r25, 0x00	; 0
 15e:	8f 3f       	cpi	r24, 0xFF	; 255
 160:	91 05       	cpc	r25, r1
 162:	c8 f3       	brcs	.-14     	; 0x156 <Send_Pulse_toLCD+0x12>
 164:	2f 5f       	subi	r18, 0xFF	; 255
 166:	3f 4f       	sbci	r19, 0xFF	; 255
 168:	22 30       	cpi	r18, 0x02	; 2
 16a:	31 05       	cpc	r19, r1
 16c:	b0 f3       	brcs	.-20     	; 0x15a <Send_Pulse_toLCD+0x16>
	MCAL_IO_WritePin(LCD_CONTROL_PORTS, Enable, SET_PIN);
 16e:	41 e0       	ldi	r20, 0x01	; 1
 170:	68 e0       	ldi	r22, 0x08	; 8
 172:	86 e3       	ldi	r24, 0x36	; 54
 174:	90 e0       	ldi	r25, 0x00	; 0
 176:	0e 94 61 02 	call	0x4c2	; 0x4c2 <MCAL_IO_WritePin>
	_delay_ms(2);
 17a:	20 e0       	ldi	r18, 0x00	; 0
 17c:	30 e0       	ldi	r19, 0x00	; 0
 17e:	09 c0       	rjmp	.+18     	; 0x192 <Send_Pulse_toLCD+0x4e>
 180:	01 96       	adiw	r24, 0x01	; 1
 182:	02 c0       	rjmp	.+4      	; 0x188 <Send_Pulse_toLCD+0x44>
 184:	80 e0       	ldi	r24, 0x00	; 0
 186:	90 e0       	ldi	r25, 0x00	; 0
 188:	8f 3f       	cpi	r24, 0xFF	; 255
 18a:	91 05       	cpc	r25, r1
 18c:	c8 f3       	brcs	.-14     	; 0x180 <Send_Pulse_toLCD+0x3c>
 18e:	2f 5f       	subi	r18, 0xFF	; 255
 190:	3f 4f       	sbci	r19, 0xFF	; 255
 192:	22 30       	cpi	r18, 0x02	; 2
 194:	31 05       	cpc	r19, r1
 196:	b0 f3       	brcs	.-20     	; 0x184 <Send_Pulse_toLCD+0x40>
}
 198:	08 95       	ret

0000019a <Write_Command_onLCD>:

void Clear_LCD_Screen(void){
	Write_Command_onLCD(LCD_CLEAR_SCREEN);
}

void Write_Command_onLCD(uint8_t Command){
 19a:	cf 93       	push	r28
 19c:	c8 2f       	mov	r28, r24
	LCD_DATA_PORTS->PORT = (LCD_DATA_PORTS->PORT & 0x0F) | (Command & 0xF0);
 19e:	8b b3       	in	r24, 0x1b	; 27
 1a0:	8f 70       	andi	r24, 0x0F	; 15
 1a2:	9c 2f       	mov	r25, r28
 1a4:	90 7f       	andi	r25, 0xF0	; 240
 1a6:	89 2b       	or	r24, r25
 1a8:	8b bb       	out	0x1b, r24	; 27
	MCAL_IO_WritePin(LCD_CONTROL_PORTS, Register_Select, RESET_PIN);
 1aa:	40 e0       	ldi	r20, 0x00	; 0
 1ac:	62 e0       	ldi	r22, 0x02	; 2
 1ae:	86 e3       	ldi	r24, 0x36	; 54
 1b0:	90 e0       	ldi	r25, 0x00	; 0
 1b2:	0e 94 61 02 	call	0x4c2	; 0x4c2 <MCAL_IO_WritePin>
	MCAL_IO_WritePin(LCD_CONTROL_PORTS, Read_Write, RESET_PIN);
 1b6:	40 e0       	ldi	r20, 0x00	; 0
 1b8:	64 e0       	ldi	r22, 0x04	; 4
 1ba:	86 e3       	ldi	r24, 0x36	; 54
 1bc:	90 e0       	ldi	r25, 0x00	; 0
 1be:	0e 94 61 02 	call	0x4c2	; 0x4c2 <MCAL_IO_WritePin>
	Send_Pulse_toLCD();
 1c2:	0e 94 a2 00 	call	0x144	; 0x144 <Send_Pulse_toLCD>

	LCD_DATA_PORTS->PORT = (LCD_DATA_PORTS->PORT & 0x0F) | ((Command << 4) & 0xF0);
 1c6:	2b b3       	in	r18, 0x1b	; 27
 1c8:	30 e1       	ldi	r19, 0x10	; 16
 1ca:	c3 9f       	mul	r28, r19
 1cc:	c0 01       	movw	r24, r0
 1ce:	11 24       	eor	r1, r1
 1d0:	92 2f       	mov	r25, r18
 1d2:	9f 70       	andi	r25, 0x0F	; 15
 1d4:	89 2b       	or	r24, r25
 1d6:	8b bb       	out	0x1b, r24	; 27
	MCAL_IO_WritePin(LCD_CONTROL_PORTS, Register_Select, RESET_PIN);
 1d8:	40 e0       	ldi	r20, 0x00	; 0
 1da:	62 e0       	ldi	r22, 0x02	; 2
 1dc:	86 e3       	ldi	r24, 0x36	; 54
 1de:	90 e0       	ldi	r25, 0x00	; 0
 1e0:	0e 94 61 02 	call	0x4c2	; 0x4c2 <MCAL_IO_WritePin>
	MCAL_IO_WritePin(LCD_CONTROL_PORTS, Read_Write, RESET_PIN);
 1e4:	40 e0       	ldi	r20, 0x00	; 0
 1e6:	64 e0       	ldi	r22, 0x04	; 4
 1e8:	86 e3       	ldi	r24, 0x36	; 54
 1ea:	90 e0       	ldi	r25, 0x00	; 0
 1ec:	0e 94 61 02 	call	0x4c2	; 0x4c2 <MCAL_IO_WritePin>
	Send_Pulse_toLCD();
 1f0:	0e 94 a2 00 	call	0x144	; 0x144 <Send_Pulse_toLCD>
}
 1f4:	cf 91       	pop	r28
 1f6:	08 95       	ret

000001f8 <Clear_LCD_Screen>:
	MCAL_IO_WritePin(LCD_CONTROL_PORTS, Enable, SET_PIN);
	_delay_ms(2);
}

void Clear_LCD_Screen(void){
	Write_Command_onLCD(LCD_CLEAR_SCREEN);
 1f8:	81 e0       	ldi	r24, 0x01	; 1
 1fa:	0e 94 cd 00 	call	0x19a	; 0x19a <Write_Command_onLCD>
 1fe:	08 95       	ret

00000200 <LCD_Init>:
	MCAL_IO_WritePin(IOB, Register_Select, RESET_PIN);
	MCAL_IO_WritePin(IOB, Read_Write, RESET_PIN);
	
}
void LCD_Init(void){
	_delay_ms(20);
 200:	20 e0       	ldi	r18, 0x00	; 0
 202:	30 e0       	ldi	r19, 0x00	; 0
 204:	09 c0       	rjmp	.+18     	; 0x218 <LCD_Init+0x18>
 206:	01 96       	adiw	r24, 0x01	; 1
 208:	02 c0       	rjmp	.+4      	; 0x20e <LCD_Init+0xe>
 20a:	80 e0       	ldi	r24, 0x00	; 0
 20c:	90 e0       	ldi	r25, 0x00	; 0
 20e:	8f 3f       	cpi	r24, 0xFF	; 255
 210:	91 05       	cpc	r25, r1
 212:	c8 f3       	brcs	.-14     	; 0x206 <LCD_Init+0x6>
 214:	2f 5f       	subi	r18, 0xFF	; 255
 216:	3f 4f       	sbci	r19, 0xFF	; 255
 218:	24 31       	cpi	r18, 0x14	; 20
 21a:	31 05       	cpc	r19, r1
 21c:	b0 f3       	brcs	.-20     	; 0x20a <LCD_Init+0xa>
	LCD_IO_init();
 21e:	0e 94 3e 00 	call	0x7c	; 0x7c <LCD_IO_init>
	Clear_LCD_Screen();
 222:	0e 94 fc 00 	call	0x1f8	; 0x1f8 <Clear_LCD_Screen>
	Write_Command_onLCD(0x02);
 226:	82 e0       	ldi	r24, 0x02	; 2
 228:	0e 94 cd 00 	call	0x19a	; 0x19a <Write_Command_onLCD>
	Write_Command_onLCD(LCD_FUNCTION_4BIT_2LINES);
 22c:	88 e2       	ldi	r24, 0x28	; 40
 22e:	0e 94 cd 00 	call	0x19a	; 0x19a <Write_Command_onLCD>
	Write_Command_onLCD(LCD_ENTRY_MODE);
 232:	86 e0       	ldi	r24, 0x06	; 6
 234:	0e 94 cd 00 	call	0x19a	; 0x19a <Write_Command_onLCD>
	Write_Command_onLCD(LCD_BEGIN_AT_FIRST_ROW);
 238:	80 e8       	ldi	r24, 0x80	; 128
 23a:	0e 94 cd 00 	call	0x19a	; 0x19a <Write_Command_onLCD>
	Write_Command_onLCD(LCD_DISP_ON_CURSOR_BLINK);
 23e:	8f e0       	ldi	r24, 0x0F	; 15
 240:	0e 94 cd 00 	call	0x19a	; 0x19a <Write_Command_onLCD>
 244:	08 95       	ret

00000246 <Write_Character_onLCD>:
	MCAL_IO_WritePin(LCD_CONTROL_PORTS, Register_Select, RESET_PIN);
	MCAL_IO_WritePin(LCD_CONTROL_PORTS, Read_Write, RESET_PIN);
	Send_Pulse_toLCD();
}

void Write_Character_onLCD(uint8_t Character){
 246:	cf 93       	push	r28
 248:	c8 2f       	mov	r28, r24
	LCD_DATA_PORTS->PORT = (LCD_DATA_PORTS->PORT & 0x0F) | (Character & 0xF0);
 24a:	8b b3       	in	r24, 0x1b	; 27
 24c:	8f 70       	andi	r24, 0x0F	; 15
 24e:	9c 2f       	mov	r25, r28
 250:	90 7f       	andi	r25, 0xF0	; 240
 252:	89 2b       	or	r24, r25
 254:	8b bb       	out	0x1b, r24	; 27
	MCAL_IO_WritePin(LCD_CONTROL_PORTS, Register_Select, SET_PIN);
 256:	41 e0       	ldi	r20, 0x01	; 1
 258:	62 e0       	ldi	r22, 0x02	; 2
 25a:	86 e3       	ldi	r24, 0x36	; 54
 25c:	90 e0       	ldi	r25, 0x00	; 0
 25e:	0e 94 61 02 	call	0x4c2	; 0x4c2 <MCAL_IO_WritePin>
	MCAL_IO_WritePin(LCD_CONTROL_PORTS, Read_Write, RESET_PIN);
 262:	40 e0       	ldi	r20, 0x00	; 0
 264:	64 e0       	ldi	r22, 0x04	; 4
 266:	86 e3       	ldi	r24, 0x36	; 54
 268:	90 e0       	ldi	r25, 0x00	; 0
 26a:	0e 94 61 02 	call	0x4c2	; 0x4c2 <MCAL_IO_WritePin>
	Send_Pulse_toLCD();
 26e:	0e 94 a2 00 	call	0x144	; 0x144 <Send_Pulse_toLCD>

	LCD_DATA_PORTS->PORT = (LCD_DATA_PORTS->PORT & 0x0F) | ((Character << 4) & 0xF0);
 272:	2b b3       	in	r18, 0x1b	; 27
 274:	30 e1       	ldi	r19, 0x10	; 16
 276:	c3 9f       	mul	r28, r19
 278:	c0 01       	movw	r24, r0
 27a:	11 24       	eor	r1, r1
 27c:	92 2f       	mov	r25, r18
 27e:	9f 70       	andi	r25, 0x0F	; 15
 280:	89 2b       	or	r24, r25
 282:	8b bb       	out	0x1b, r24	; 27
	MCAL_IO_WritePin(LCD_CONTROL_PORTS, Register_Select, SET_PIN);
 284:	41 e0       	ldi	r20, 0x01	; 1
 286:	62 e0       	ldi	r22, 0x02	; 2
 288:	86 e3       	ldi	r24, 0x36	; 54
 28a:	90 e0       	ldi	r25, 0x00	; 0
 28c:	0e 94 61 02 	call	0x4c2	; 0x4c2 <MCAL_IO_WritePin>
	MCAL_IO_WritePin(LCD_CONTROL_PORTS, Read_Write, RESET_PIN);
 290:	40 e0       	ldi	r20, 0x00	; 0
 292:	64 e0       	ldi	r22, 0x04	; 4
 294:	86 e3       	ldi	r24, 0x36	; 54
 296:	90 e0       	ldi	r25, 0x00	; 0
 298:	0e 94 61 02 	call	0x4c2	; 0x4c2 <MCAL_IO_WritePin>
	Send_Pulse_toLCD();
 29c:	0e 94 a2 00 	call	0x144	; 0x144 <Send_Pulse_toLCD>
}
 2a0:	cf 91       	pop	r28
 2a2:	08 95       	ret

000002a4 <Control_LCD_Lines_And_Cursor>:
			counter = 0;
		}
	}
}

void Control_LCD_Lines_And_Cursor(uint8_t LINE, uint8_t CURSOR){
 2a4:	cf 93       	push	r28
 2a6:	df 93       	push	r29
 2a8:	c8 2f       	mov	r28, r24
 2aa:	d6 2f       	mov	r29, r22
	if(LINE == 1 && CURSOR < 16)
 2ac:	81 30       	cpi	r24, 0x01	; 1
 2ae:	31 f4       	brne	.+12     	; 0x2bc <Control_LCD_Lines_And_Cursor+0x18>
 2b0:	60 31       	cpi	r22, 0x10	; 16
 2b2:	20 f4       	brcc	.+8      	; 0x2bc <Control_LCD_Lines_And_Cursor+0x18>
	Write_Command_onLCD(LCD_BEGIN_AT_FIRST_ROW + CURSOR);
 2b4:	80 e8       	ldi	r24, 0x80	; 128
 2b6:	86 0f       	add	r24, r22
 2b8:	0e 94 cd 00 	call	0x19a	; 0x19a <Write_Command_onLCD>
	if(LINE == 2 && CURSOR < 16)
 2bc:	c2 30       	cpi	r28, 0x02	; 2
 2be:	31 f4       	brne	.+12     	; 0x2cc <Control_LCD_Lines_And_Cursor+0x28>
 2c0:	d0 31       	cpi	r29, 0x10	; 16
 2c2:	20 f4       	brcc	.+8      	; 0x2cc <Control_LCD_Lines_And_Cursor+0x28>
	Write_Command_onLCD(LCD_BEGIN_AT_SECOND_ROW + CURSOR);
 2c4:	80 ec       	ldi	r24, 0xC0	; 192
 2c6:	8d 0f       	add	r24, r29
 2c8:	0e 94 cd 00 	call	0x19a	; 0x19a <Write_Command_onLCD>
}
 2cc:	df 91       	pop	r29
 2ce:	cf 91       	pop	r28
 2d0:	08 95       	ret

000002d2 <Write_String_onLCD>:
	MCAL_IO_WritePin(LCD_CONTROL_PORTS, Register_Select, SET_PIN);
	MCAL_IO_WritePin(LCD_CONTROL_PORTS, Read_Write, RESET_PIN);
	Send_Pulse_toLCD();
}

void Write_String_onLCD(uint8_t *String){
 2d2:	cf 92       	push	r12
 2d4:	df 92       	push	r13
 2d6:	ef 92       	push	r14
 2d8:	ff 92       	push	r15
 2da:	cf 93       	push	r28
 2dc:	df 93       	push	r29
 2de:	ec 01       	movw	r28, r24
	uint32_t counter = 0;
 2e0:	c1 2c       	mov	r12, r1
 2e2:	d1 2c       	mov	r13, r1
 2e4:	76 01       	movw	r14, r12
	while(*String > 0){
 2e6:	21 c0       	rjmp	.+66     	; 0x32a <Write_String_onLCD+0x58>
		counter++;
 2e8:	9f ef       	ldi	r25, 0xFF	; 255
 2ea:	c9 1a       	sub	r12, r25
 2ec:	d9 0a       	sbc	r13, r25
 2ee:	e9 0a       	sbc	r14, r25
 2f0:	f9 0a       	sbc	r15, r25
		Write_Character_onLCD(*String++);
 2f2:	21 96       	adiw	r28, 0x01	; 1
 2f4:	0e 94 23 01 	call	0x246	; 0x246 <Write_Character_onLCD>
		if(counter == 16) Control_LCD_Lines_And_Cursor(2,0);
 2f8:	80 e1       	ldi	r24, 0x10	; 16
 2fa:	c8 16       	cp	r12, r24
 2fc:	d1 04       	cpc	r13, r1
 2fe:	e1 04       	cpc	r14, r1
 300:	f1 04       	cpc	r15, r1
 302:	21 f4       	brne	.+8      	; 0x30c <Write_String_onLCD+0x3a>
 304:	60 e0       	ldi	r22, 0x00	; 0
 306:	82 e0       	ldi	r24, 0x02	; 2
 308:	0e 94 52 01 	call	0x2a4	; 0x2a4 <Control_LCD_Lines_And_Cursor>
		if(counter == 32){
 30c:	90 e2       	ldi	r25, 0x20	; 32
 30e:	c9 16       	cp	r12, r25
 310:	d1 04       	cpc	r13, r1
 312:	e1 04       	cpc	r14, r1
 314:	f1 04       	cpc	r15, r1
 316:	49 f4       	brne	.+18     	; 0x32a <Write_String_onLCD+0x58>
			Clear_LCD_Screen();
 318:	0e 94 fc 00 	call	0x1f8	; 0x1f8 <Clear_LCD_Screen>
			Control_LCD_Lines_And_Cursor(1,0);
 31c:	60 e0       	ldi	r22, 0x00	; 0
 31e:	81 e0       	ldi	r24, 0x01	; 1
 320:	0e 94 52 01 	call	0x2a4	; 0x2a4 <Control_LCD_Lines_And_Cursor>
			counter = 0;
 324:	c1 2c       	mov	r12, r1
 326:	d1 2c       	mov	r13, r1
 328:	76 01       	movw	r14, r12
	Send_Pulse_toLCD();
}

void Write_String_onLCD(uint8_t *String){
	uint32_t counter = 0;
	while(*String > 0){
 32a:	88 81       	ld	r24, Y
 32c:	81 11       	cpse	r24, r1
 32e:	dc cf       	rjmp	.-72     	; 0x2e8 <Write_String_onLCD+0x16>
			Clear_LCD_Screen();
			Control_LCD_Lines_And_Cursor(1,0);
			counter = 0;
		}
	}
}
 330:	df 91       	pop	r29
 332:	cf 91       	pop	r28
 334:	ff 90       	pop	r15
 336:	ef 90       	pop	r14
 338:	df 90       	pop	r13
 33a:	cf 90       	pop	r12
 33c:	08 95       	ret

0000033e <main>:
#include "USART.h"



/* For  Atmega32 Simulation */ 
int main(void) {
 33e:	cf 93       	push	r28
 340:	df 93       	push	r29
 342:	cd b7       	in	r28, 0x3d	; 61
 344:	de b7       	in	r29, 0x3e	; 62
 346:	2a 97       	sbiw	r28, 0x0a	; 10
 348:	0f b6       	in	r0, 0x3f	; 63
 34a:	f8 94       	cli
 34c:	de bf       	out	0x3e, r29	; 62
 34e:	0f be       	out	0x3f, r0	; 63
 350:	cd bf       	out	0x3d, r28	; 61
	
	uint8_t data ;
	uint8_t data_string [10]  ;
	LCD_Init();
 352:	0e 94 00 01 	call	0x200	; 0x200 <LCD_Init>
	MCAL_USART_Init ();
 356:	0e 94 6d 02 	call	0x4da	; 0x4da <MCAL_USART_Init>
	while (1) {
			
//  		data = MCAL_USART_Recieve_Char ();
//  		Write_Character_onLCD(data);
// 
	 			MCAL_USART_Recieve_String(data_string);
 35a:	ce 01       	movw	r24, r28
 35c:	01 96       	adiw	r24, 0x01	; 1
 35e:	0e 94 78 02 	call	0x4f0	; 0x4f0 <MCAL_USART_Recieve_String>
				Control_LCD_Lines_And_Cursor(2,0);
 362:	60 e0       	ldi	r22, 0x00	; 0
 364:	82 e0       	ldi	r24, 0x02	; 2
 366:	0e 94 52 01 	call	0x2a4	; 0x2a4 <Control_LCD_Lines_And_Cursor>
 				Write_String_onLCD(data_string);
 36a:	ce 01       	movw	r24, r28
 36c:	01 96       	adiw	r24, 0x01	; 1
 36e:	0e 94 69 01 	call	0x2d2	; 0x2d2 <Write_String_onLCD>
 372:	f3 cf       	rjmp	.-26     	; 0x35a <main+0x1c>

00000374 <__vector_1>:


// ISRs
// ISRs
void __vector_1(void) __attribute__((signal, used)); // INT0
void __vector_1(void) {
 374:	1f 92       	push	r1
 376:	0f 92       	push	r0
 378:	0f b6       	in	r0, 0x3f	; 63
 37a:	0f 92       	push	r0
 37c:	11 24       	eor	r1, r1
 37e:	2f 93       	push	r18
 380:	3f 93       	push	r19
 382:	4f 93       	push	r20
 384:	5f 93       	push	r21
 386:	6f 93       	push	r22
 388:	7f 93       	push	r23
 38a:	8f 93       	push	r24
 38c:	9f 93       	push	r25
 38e:	af 93       	push	r26
 390:	bf 93       	push	r27
 392:	ef 93       	push	r30
 394:	ff 93       	push	r31
	
	 /*if (GP_IRQ_FUNC_CALLBACK[0])*/
	  GP_IRQ_FUNC_CALLBACK[0](); 
 396:	e0 91 60 00 	lds	r30, 0x0060	; 0x800060 <__DATA_REGION_ORIGIN__>
 39a:	f0 91 61 00 	lds	r31, 0x0061	; 0x800061 <__DATA_REGION_ORIGIN__+0x1>
 39e:	09 95       	icall
	 }
 3a0:	ff 91       	pop	r31
 3a2:	ef 91       	pop	r30
 3a4:	bf 91       	pop	r27
 3a6:	af 91       	pop	r26
 3a8:	9f 91       	pop	r25
 3aa:	8f 91       	pop	r24
 3ac:	7f 91       	pop	r23
 3ae:	6f 91       	pop	r22
 3b0:	5f 91       	pop	r21
 3b2:	4f 91       	pop	r20
 3b4:	3f 91       	pop	r19
 3b6:	2f 91       	pop	r18
 3b8:	0f 90       	pop	r0
 3ba:	0f be       	out	0x3f, r0	; 63
 3bc:	0f 90       	pop	r0
 3be:	1f 90       	pop	r1
 3c0:	18 95       	reti

000003c2 <__vector_2>:

void __vector_2(void) __attribute__((signal, used)); // INT1
void __vector_2(void) { 
 3c2:	1f 92       	push	r1
 3c4:	0f 92       	push	r0
 3c6:	0f b6       	in	r0, 0x3f	; 63
 3c8:	0f 92       	push	r0
 3ca:	11 24       	eor	r1, r1
 3cc:	2f 93       	push	r18
 3ce:	3f 93       	push	r19
 3d0:	4f 93       	push	r20
 3d2:	5f 93       	push	r21
 3d4:	6f 93       	push	r22
 3d6:	7f 93       	push	r23
 3d8:	8f 93       	push	r24
 3da:	9f 93       	push	r25
 3dc:	af 93       	push	r26
 3de:	bf 93       	push	r27
 3e0:	ef 93       	push	r30
 3e2:	ff 93       	push	r31
	/*if (GP_IRQ_FUNC_CALLBACK[1])*/
	 GP_IRQ_FUNC_CALLBACK[1](); 
 3e4:	e0 91 62 00 	lds	r30, 0x0062	; 0x800062 <__DATA_REGION_ORIGIN__+0x2>
 3e8:	f0 91 63 00 	lds	r31, 0x0063	; 0x800063 <__DATA_REGION_ORIGIN__+0x3>
 3ec:	09 95       	icall
	}
 3ee:	ff 91       	pop	r31
 3f0:	ef 91       	pop	r30
 3f2:	bf 91       	pop	r27
 3f4:	af 91       	pop	r26
 3f6:	9f 91       	pop	r25
 3f8:	8f 91       	pop	r24
 3fa:	7f 91       	pop	r23
 3fc:	6f 91       	pop	r22
 3fe:	5f 91       	pop	r21
 400:	4f 91       	pop	r20
 402:	3f 91       	pop	r19
 404:	2f 91       	pop	r18
 406:	0f 90       	pop	r0
 408:	0f be       	out	0x3f, r0	; 63
 40a:	0f 90       	pop	r0
 40c:	1f 90       	pop	r1
 40e:	18 95       	reti

00000410 <__vector_3>:

void __vector_3(void) __attribute__((signal, used)); // INT2
void __vector_3(void) { 
 410:	1f 92       	push	r1
 412:	0f 92       	push	r0
 414:	0f b6       	in	r0, 0x3f	; 63
 416:	0f 92       	push	r0
 418:	11 24       	eor	r1, r1
 41a:	2f 93       	push	r18
 41c:	3f 93       	push	r19
 41e:	4f 93       	push	r20
 420:	5f 93       	push	r21
 422:	6f 93       	push	r22
 424:	7f 93       	push	r23
 426:	8f 93       	push	r24
 428:	9f 93       	push	r25
 42a:	af 93       	push	r26
 42c:	bf 93       	push	r27
 42e:	ef 93       	push	r30
 430:	ff 93       	push	r31
	/*if (GP_IRQ_FUNC_CALLBACK[2])*/
	 GP_IRQ_FUNC_CALLBACK[2](); 
 432:	e0 91 64 00 	lds	r30, 0x0064	; 0x800064 <__DATA_REGION_ORIGIN__+0x4>
 436:	f0 91 65 00 	lds	r31, 0x0065	; 0x800065 <__DATA_REGION_ORIGIN__+0x5>
 43a:	09 95       	icall
 43c:	ff 91       	pop	r31
 43e:	ef 91       	pop	r30
 440:	bf 91       	pop	r27
 442:	af 91       	pop	r26
 444:	9f 91       	pop	r25
 446:	8f 91       	pop	r24
 448:	7f 91       	pop	r23
 44a:	6f 91       	pop	r22
 44c:	5f 91       	pop	r21
 44e:	4f 91       	pop	r20
 450:	3f 91       	pop	r19
 452:	2f 91       	pop	r18
 454:	0f 90       	pop	r0
 456:	0f be       	out	0x3f, r0	; 63
 458:	0f 90       	pop	r0
 45a:	1f 90       	pop	r1
 45c:	18 95       	reti

0000045e <MCAL_IO_Init>:
 * @retval 				-the input port VALUE
 * Note					-none
 */
uint8_t MCAL_IO_ReadPort(IOx_t *IOx){
	return IOx->PIN;  // return value on pin from pin0 to pin7 
}
 45e:	fc 01       	movw	r30, r24
 460:	db 01       	movw	r26, r22
 462:	11 96       	adiw	r26, 0x01	; 1
 464:	8c 91       	ld	r24, X
 466:	11 97       	sbiw	r26, 0x01	; 1
 468:	81 11       	cpse	r24, r1
 46a:	0b c0       	rjmp	.+22     	; 0x482 <MCAL_IO_Init+0x24>
 46c:	91 81       	ldd	r25, Z+1	; 0x01
 46e:	8c 91       	ld	r24, X
 470:	80 95       	com	r24
 472:	89 23       	and	r24, r25
 474:	81 83       	std	Z+1, r24	; 0x01
 476:	92 81       	ldd	r25, Z+2	; 0x02
 478:	8c 91       	ld	r24, X
 47a:	80 95       	com	r24
 47c:	89 23       	and	r24, r25
 47e:	82 83       	std	Z+2, r24	; 0x02
 480:	08 95       	ret
 482:	81 30       	cpi	r24, 0x01	; 1
 484:	51 f4       	brne	.+20     	; 0x49a <MCAL_IO_Init+0x3c>
 486:	91 81       	ldd	r25, Z+1	; 0x01
 488:	8c 91       	ld	r24, X
 48a:	80 95       	com	r24
 48c:	89 23       	and	r24, r25
 48e:	81 83       	std	Z+1, r24	; 0x01
 490:	92 81       	ldd	r25, Z+2	; 0x02
 492:	8c 91       	ld	r24, X
 494:	89 2b       	or	r24, r25
 496:	82 83       	std	Z+2, r24	; 0x02
 498:	08 95       	ret
 49a:	91 81       	ldd	r25, Z+1	; 0x01
 49c:	8c 91       	ld	r24, X
 49e:	89 2b       	or	r24, r25
 4a0:	81 83       	std	Z+1, r24	; 0x01
 4a2:	11 96       	adiw	r26, 0x01	; 1
 4a4:	8c 91       	ld	r24, X
 4a6:	11 97       	sbiw	r26, 0x01	; 1
 4a8:	83 30       	cpi	r24, 0x03	; 3
 4aa:	29 f4       	brne	.+10     	; 0x4b6 <MCAL_IO_Init+0x58>
 4ac:	92 81       	ldd	r25, Z+2	; 0x02
 4ae:	8c 91       	ld	r24, X
 4b0:	89 2b       	or	r24, r25
 4b2:	82 83       	std	Z+2, r24	; 0x02
 4b4:	08 95       	ret
 4b6:	92 81       	ldd	r25, Z+2	; 0x02
 4b8:	8c 91       	ld	r24, X
 4ba:	80 95       	com	r24
 4bc:	89 23       	and	r24, r25
 4be:	82 83       	std	Z+2, r24	; 0x02
 4c0:	08 95       	ret

000004c2 <MCAL_IO_WritePin>:
 *@param [in] 			-PinNumber:  specifies the port bit to read. Set by @ref IO_PINS_define
 *@param [in] 			-Value: Value
 *@retval 				-none
 * Note					-none
 */
void MCAL_IO_WritePin(IOx_t *IOx, uint8_t PinNumber, uint8_t Value){
 4c2:	fc 01       	movw	r30, r24
	if(Value == SET_PIN){        //user will send 1 or 0 on  bit we should take this value and put it in port register 
 4c4:	41 30       	cpi	r20, 0x01	; 1
 4c6:	21 f4       	brne	.+8      	; 0x4d0 <MCAL_IO_WritePin+0xe>
		IOx->PORT |= PinNumber;
 4c8:	82 81       	ldd	r24, Z+2	; 0x02
 4ca:	68 2b       	or	r22, r24
 4cc:	62 83       	std	Z+2, r22	; 0x02
 4ce:	08 95       	ret
		} else {
		IOx->PORT &= ~PinNumber;
 4d0:	92 81       	ldd	r25, Z+2	; 0x02
 4d2:	60 95       	com	r22
 4d4:	69 23       	and	r22, r25
 4d6:	62 83       	std	Z+2, r22	; 0x02
 4d8:	08 95       	ret

000004da <MCAL_USART_Init>:
{
	while (*str)
	{
		MCAL_USART_Send_Char(*str++);
	}
}
 4da:	83 e3       	ldi	r24, 0x33	; 51
 4dc:	89 b9       	out	0x09, r24	; 9
 4de:	86 e8       	ldi	r24, 0x86	; 134
 4e0:	80 bd       	out	0x20, r24	; 32
 4e2:	88 e1       	ldi	r24, 0x18	; 24
 4e4:	8a b9       	out	0x0a, r24	; 10
 4e6:	08 95       	ret

000004e8 <MCAL_USART_Recieve_Char>:
 4e8:	5f 9b       	sbis	0x0b, 7	; 11
 4ea:	fe cf       	rjmp	.-4      	; 0x4e8 <MCAL_USART_Recieve_Char>
 4ec:	8c b1       	in	r24, 0x0c	; 12
 4ee:	08 95       	ret

000004f0 <MCAL_USART_Recieve_String>:

void MCAL_USART_Recieve_String(uint8_t *str){
 4f0:	0f 93       	push	r16
 4f2:	1f 93       	push	r17
 4f4:	cf 93       	push	r28
 4f6:	8c 01       	movw	r16, r24
   uint8_t i = 0 ;
 4f8:	c0 e0       	ldi	r28, 0x00	; 0
	while(1)
	{
		*str = MCAL_USART_Recieve_Char();
 4fa:	0e 94 74 02 	call	0x4e8	; 0x4e8 <MCAL_USART_Recieve_Char>
 4fe:	f8 01       	movw	r30, r16
 500:	80 83       	st	Z, r24
		if( *str == '0')
 502:	80 33       	cpi	r24, 0x30	; 48
 504:	a1 f0       	breq	.+40     	; 0x52e <MCAL_USART_Recieve_String+0x3e>
			break;
		else{
			Write_Character_onLCD(*str);
 506:	90 e0       	ldi	r25, 0x00	; 0
 508:	0e 94 23 01 	call	0x246	; 0x246 <Write_Character_onLCD>
			if( i == 15) {
 50c:	cf 30       	cpi	r28, 0x0F	; 15
 50e:	39 f4       	brne	.+14     	; 0x51e <MCAL_USART_Recieve_String+0x2e>
				Control_LCD_Lines_And_Cursor(2,0);
 510:	60 e0       	ldi	r22, 0x00	; 0
 512:	70 e0       	ldi	r23, 0x00	; 0
 514:	82 e0       	ldi	r24, 0x02	; 2
 516:	90 e0       	ldi	r25, 0x00	; 0
 518:	0e 94 52 01 	call	0x2a4	; 0x2a4 <Control_LCD_Lines_And_Cursor>
 51c:	04 c0       	rjmp	.+8      	; 0x526 <MCAL_USART_Recieve_String+0x36>
			}else if (i == 31)
 51e:	cf 31       	cpi	r28, 0x1F	; 31
 520:	11 f4       	brne	.+4      	; 0x526 <MCAL_USART_Recieve_String+0x36>
			{
			  Clear_LCD_Screen();
 522:	0e 94 fc 00 	call	0x1f8	; 0x1f8 <Clear_LCD_Screen>
			}
			str++;
 526:	0f 5f       	subi	r16, 0xFF	; 255
 528:	1f 4f       	sbci	r17, 0xFF	; 255
			i++;
 52a:	cf 5f       	subi	r28, 0xFF	; 255
		}

	}
 52c:	e6 cf       	rjmp	.-52     	; 0x4fa <MCAL_USART_Recieve_String+0xa>
 52e:	cf 91       	pop	r28
 530:	1f 91       	pop	r17
 532:	0f 91       	pop	r16
 534:	08 95       	ret

00000536 <_exit>:
 536:	f8 94       	cli

00000538 <__stop_program>:
 538:	ff cf       	rjmp	.-2      	; 0x538 <__stop_program>
