
Drivers1.elf:     file format elf32-littlearm

Sections:
Idx Name          Size      VMA       LMA       File off  Algn
  0 .isr_vector   00000130  08000000  08000000  00010000  2**0
                  CONTENTS, ALLOC, LOAD, READONLY, DATA
  1 .text         000009c4  08000130  08000130  00010130  2**2
                  CONTENTS, ALLOC, LOAD, READONLY, CODE
  2 .rodata       0000000c  08000af4  08000af4  00010af4  2**2
                  CONTENTS, ALLOC, LOAD, READONLY, DATA
  3 .ARM.extab    00000000  08000b00  08000b00  00010b08  2**0
                  CONTENTS
  4 .ARM          00000000  08000b00  08000b00  00010b08  2**0
                  CONTENTS
  5 .preinit_array 00000000  08000b00  08000b08  00010b08  2**0
                  CONTENTS, ALLOC, LOAD, DATA
  6 .init_array   00000004  08000b00  08000b00  00010b00  2**2
                  CONTENTS, ALLOC, LOAD, DATA
  7 .fini_array   00000004  08000b04  08000b04  00010b04  2**2
                  CONTENTS, ALLOC, LOAD, DATA
  8 .data         00000000  20000000  20000000  00010b08  2**0
                  CONTENTS, ALLOC, LOAD, DATA
  9 .bss          0000006c  20000000  08000b08  00020000  2**2
                  ALLOC
 10 ._user_heap_stack 00000604  2000006c  08000b08  0002006c  2**0
                  ALLOC
 11 .ARM.attributes 00000029  00000000  00000000  00010b08  2**0
                  CONTENTS, READONLY
 12 .debug_info   0000442b  00000000  00000000  00010b31  2**0
                  CONTENTS, READONLY, DEBUGGING
 13 .debug_abbrev 00000a68  00000000  00000000  00014f5c  2**0
                  CONTENTS, READONLY, DEBUGGING
 14 .debug_loc    00000c1c  00000000  00000000  000159c4  2**0
                  CONTENTS, READONLY, DEBUGGING
 15 .debug_aranges 000001e8  00000000  00000000  000165e0  2**3
                  CONTENTS, READONLY, DEBUGGING
 16 .debug_ranges 00000190  00000000  00000000  000167c8  2**3
                  CONTENTS, READONLY, DEBUGGING
 17 .debug_macro  0000094c  00000000  00000000  00016958  2**0
                  CONTENTS, READONLY, DEBUGGING
 18 .debug_line   00002ac7  00000000  00000000  000172a4  2**0
                  CONTENTS, READONLY, DEBUGGING
 19 .debug_str    0000b499  00000000  00000000  00019d6b  2**0
                  CONTENTS, READONLY, DEBUGGING
 20 .comment      0000007b  00000000  00000000  00025204  2**0
                  CONTENTS, READONLY
 21 .debug_frame  00000638  00000000  00000000  00025280  2**2
                  CONTENTS, READONLY, DEBUGGING

Disassembly of section .text:

08000130 <__do_global_dtors_aux>:
 8000130:	b510      	push	{r4, lr}
 8000132:	4c05      	ldr	r4, [pc, #20]	; (8000148 <__do_global_dtors_aux+0x18>)
 8000134:	7823      	ldrb	r3, [r4, #0]
 8000136:	b933      	cbnz	r3, 8000146 <__do_global_dtors_aux+0x16>
 8000138:	4b04      	ldr	r3, [pc, #16]	; (800014c <__do_global_dtors_aux+0x1c>)
 800013a:	b113      	cbz	r3, 8000142 <__do_global_dtors_aux+0x12>
 800013c:	4804      	ldr	r0, [pc, #16]	; (8000150 <__do_global_dtors_aux+0x20>)
 800013e:	f3af 8000 	nop.w
 8000142:	2301      	movs	r3, #1
 8000144:	7023      	strb	r3, [r4, #0]
 8000146:	bd10      	pop	{r4, pc}
 8000148:	20000000 	.word	0x20000000
 800014c:	00000000 	.word	0x00000000
 8000150:	08000adc 	.word	0x08000adc

08000154 <frame_dummy>:
 8000154:	b508      	push	{r3, lr}
 8000156:	4b03      	ldr	r3, [pc, #12]	; (8000164 <frame_dummy+0x10>)
 8000158:	b11b      	cbz	r3, 8000162 <frame_dummy+0xe>
 800015a:	4903      	ldr	r1, [pc, #12]	; (8000168 <frame_dummy+0x14>)
 800015c:	4803      	ldr	r0, [pc, #12]	; (800016c <frame_dummy+0x18>)
 800015e:	f3af 8000 	nop.w
 8000162:	bd08      	pop	{r3, pc}
 8000164:	00000000 	.word	0x00000000
 8000168:	20000004 	.word	0x20000004
 800016c:	08000adc 	.word	0x08000adc

08000170 <IRQ9_Callback>:

volatile uint8_t IRQ_Flag = 0;


void IRQ9_Callback()
{
 8000170:	b480      	push	{r7}
 8000172:	af00      	add	r7, sp, #0
    IRQ_Flag = 1;
 8000174:	4b03      	ldr	r3, [pc, #12]	; (8000184 <IRQ9_Callback+0x14>)
 8000176:	2201      	movs	r2, #1
 8000178:	701a      	strb	r2, [r3, #0]
}
 800017a:	bf00      	nop
 800017c:	46bd      	mov	sp, r7
 800017e:	bc80      	pop	{r7}
 8000180:	4770      	bx	lr
 8000182:	bf00      	nop
 8000184:	2000001c 	.word	0x2000001c

08000188 <main>:

int main(void)
{
 8000188:	b580      	push	{r7, lr}
 800018a:	b086      	sub	sp, #24
 800018c:	af00      	add	r7, sp, #0
			//APP_Init();

    // enable clocks for GPIOA GPIOB AFIO
	RCC_AFIO_CLK_EN();
 800018e:	4b15      	ldr	r3, [pc, #84]	; (80001e4 <main+0x5c>)
 8000190:	699b      	ldr	r3, [r3, #24]
 8000192:	4a14      	ldr	r2, [pc, #80]	; (80001e4 <main+0x5c>)
 8000194:	f043 0301 	orr.w	r3, r3, #1
 8000198:	6193      	str	r3, [r2, #24]
    RCC_GPIOA_CLK_EN();
 800019a:	4b12      	ldr	r3, [pc, #72]	; (80001e4 <main+0x5c>)
 800019c:	699b      	ldr	r3, [r3, #24]
 800019e:	4a11      	ldr	r2, [pc, #68]	; (80001e4 <main+0x5c>)
 80001a0:	f043 0304 	orr.w	r3, r3, #4
 80001a4:	6193      	str	r3, [r2, #24]
    RCC_GPIOB_CLK_EN();
 80001a6:	4b0f      	ldr	r3, [pc, #60]	; (80001e4 <main+0x5c>)
 80001a8:	699b      	ldr	r3, [r3, #24]
 80001aa:	4a0e      	ldr	r2, [pc, #56]	; (80001e4 <main+0x5c>)
 80001ac:	f043 0308 	orr.w	r3, r3, #8
 80001b0:	6193      	str	r3, [r2, #24]


    EXTI_Configure_Pin_t EXTIx;
    EXTIx.EXTI_PIN = EXTI9PB9;
 80001b2:	4a0d      	ldr	r2, [pc, #52]	; (80001e8 <main+0x60>)
 80001b4:	1d3b      	adds	r3, r7, #4
 80001b6:	ca07      	ldmia	r2, {r0, r1, r2}
 80001b8:	e883 0007 	stmia.w	r3, {r0, r1, r2}
    EXTIx.EDGE_CASE = RISING_EDGE;
 80001bc:	2300      	movs	r3, #0
 80001be:	743b      	strb	r3, [r7, #16]
    EXTIx.IRQ_E_D = ENABLE_IRQ_EXTI;
 80001c0:	2301      	movs	r3, #1
 80001c2:	747b      	strb	r3, [r7, #17]
    EXTIx.P_IRQ_FUNC_CALLBACK = &IRQ9_Callback;
 80001c4:	4b09      	ldr	r3, [pc, #36]	; (80001ec <main+0x64>)
 80001c6:	617b      	str	r3, [r7, #20]
    MCAL_EXTI_GPIO_Init(&EXTIx);
 80001c8:	1d3b      	adds	r3, r7, #4
 80001ca:	4618      	mov	r0, r3
 80001cc:	f000 f9ea 	bl	80005a4 <MCAL_EXTI_GPIO_Init>
    while(1)
    {
    	// APP_Start();
    	 if(IRQ_Flag)
 80001d0:	4b07      	ldr	r3, [pc, #28]	; (80001f0 <main+0x68>)
 80001d2:	781b      	ldrb	r3, [r3, #0]
 80001d4:	b2db      	uxtb	r3, r3
 80001d6:	2b00      	cmp	r3, #0
 80001d8:	d0fa      	beq.n	80001d0 <main+0x48>
    	        {
    	            IRQ_Flag = 0;
 80001da:	4b05      	ldr	r3, [pc, #20]	; (80001f0 <main+0x68>)
 80001dc:	2200      	movs	r2, #0
 80001de:	701a      	strb	r2, [r3, #0]
    	 if(IRQ_Flag)
 80001e0:	e7f6      	b.n	80001d0 <main+0x48>
 80001e2:	bf00      	nop
 80001e4:	40021000 	.word	0x40021000
 80001e8:	08000af4 	.word	0x08000af4
 80001ec:	08000171 	.word	0x08000171
 80001f0:	2000001c 	.word	0x2000001c

080001f4 <Reset_Handler>:

  .section .text.Reset_Handler
  .weak Reset_Handler
  .type Reset_Handler, %function
Reset_Handler:
  ldr   r0, =_estack
 80001f4:	480d      	ldr	r0, [pc, #52]	; (800022c <LoopForever+0x2>)
  mov   sp, r0          /* set stack pointer */
 80001f6:	4685      	mov	sp, r0
/* Call the clock system intitialization function.*/
  bl  SystemInit
 80001f8:	f3af 8000 	nop.w

/* Copy the data segment initializers from flash to SRAM */
  ldr r0, =_sdata
 80001fc:	480c      	ldr	r0, [pc, #48]	; (8000230 <LoopForever+0x6>)
  ldr r1, =_edata
 80001fe:	490d      	ldr	r1, [pc, #52]	; (8000234 <LoopForever+0xa>)
  ldr r2, =_sidata
 8000200:	4a0d      	ldr	r2, [pc, #52]	; (8000238 <LoopForever+0xe>)
  movs r3, #0
 8000202:	2300      	movs	r3, #0
  b LoopCopyDataInit
 8000204:	e002      	b.n	800020c <LoopCopyDataInit>

08000206 <CopyDataInit>:

CopyDataInit:
  ldr r4, [r2, r3]
 8000206:	58d4      	ldr	r4, [r2, r3]
  str r4, [r0, r3]
 8000208:	50c4      	str	r4, [r0, r3]
  adds r3, r3, #4
 800020a:	3304      	adds	r3, #4

0800020c <LoopCopyDataInit>:

LoopCopyDataInit:
  adds r4, r0, r3
 800020c:	18c4      	adds	r4, r0, r3
  cmp r4, r1
 800020e:	428c      	cmp	r4, r1
  bcc CopyDataInit
 8000210:	d3f9      	bcc.n	8000206 <CopyDataInit>

/* Zero fill the bss segment. */
  ldr r2, =_sbss
 8000212:	4a0a      	ldr	r2, [pc, #40]	; (800023c <LoopForever+0x12>)
  ldr r4, =_ebss
 8000214:	4c0a      	ldr	r4, [pc, #40]	; (8000240 <LoopForever+0x16>)
  movs r3, #0
 8000216:	2300      	movs	r3, #0
  b LoopFillZerobss
 8000218:	e001      	b.n	800021e <LoopFillZerobss>

0800021a <FillZerobss>:

FillZerobss:
  str  r3, [r2]
 800021a:	6013      	str	r3, [r2, #0]
  adds r2, r2, #4
 800021c:	3204      	adds	r2, #4

0800021e <LoopFillZerobss>:

LoopFillZerobss:
  cmp r2, r4
 800021e:	42a2      	cmp	r2, r4
  bcc FillZerobss
 8000220:	d3fb      	bcc.n	800021a <FillZerobss>

/* Call static constructors */
  bl __libc_init_array
 8000222:	f000 fc37 	bl	8000a94 <__libc_init_array>
/* Call the application's entry point.*/
  bl main
 8000226:	f7ff ffaf 	bl	8000188 <main>

0800022a <LoopForever>:

LoopForever:
    b LoopForever
 800022a:	e7fe      	b.n	800022a <LoopForever>
  ldr   r0, =_estack
 800022c:	20002800 	.word	0x20002800
  ldr r0, =_sdata
 8000230:	20000000 	.word	0x20000000
  ldr r1, =_edata
 8000234:	20000000 	.word	0x20000000
  ldr r2, =_sidata
 8000238:	08000b08 	.word	0x08000b08
  ldr r2, =_sbss
 800023c:	20000000 	.word	0x20000000
  ldr r4, =_ebss
 8000240:	2000006c 	.word	0x2000006c

08000244 <ADC1_2_IRQHandler>:
 * @retval : None
*/
  .section .text.Default_Handler,"ax",%progbits
Default_Handler:
Infinite_Loop:
  b Infinite_Loop
 8000244:	e7fe      	b.n	8000244 <ADC1_2_IRQHandler>
	...

08000248 <Enable_NVIC>:
 * 							Generic Functions
 * =======================================================================================
 */

void Enable_NVIC (uint16_t IRQ_NUMBER)
{
 8000248:	b480      	push	{r7}
 800024a:	b083      	sub	sp, #12
 800024c:	af00      	add	r7, sp, #0
 800024e:	4603      	mov	r3, r0
 8000250:	80fb      	strh	r3, [r7, #6]
	switch (IRQ_NUMBER)
 8000252:	88fb      	ldrh	r3, [r7, #6]
 8000254:	2b0f      	cmp	r3, #15
 8000256:	d854      	bhi.n	8000302 <Enable_NVIC+0xba>
 8000258:	a201      	add	r2, pc, #4	; (adr r2, 8000260 <Enable_NVIC+0x18>)
 800025a:	f852 f023 	ldr.w	pc, [r2, r3, lsl #2]
 800025e:	bf00      	nop
 8000260:	080002a1 	.word	0x080002a1
 8000264:	080002af 	.word	0x080002af
 8000268:	080002bd 	.word	0x080002bd
 800026c:	080002cb 	.word	0x080002cb
 8000270:	080002d9 	.word	0x080002d9
 8000274:	080002e7 	.word	0x080002e7
 8000278:	080002e7 	.word	0x080002e7
 800027c:	080002e7 	.word	0x080002e7
 8000280:	080002e7 	.word	0x080002e7
 8000284:	080002e7 	.word	0x080002e7
 8000288:	080002f5 	.word	0x080002f5
 800028c:	080002f5 	.word	0x080002f5
 8000290:	080002f5 	.word	0x080002f5
 8000294:	080002f5 	.word	0x080002f5
 8000298:	080002f5 	.word	0x080002f5
 800029c:	080002f5 	.word	0x080002f5
	{
	case 0:
		NVIC_IRQ6_EXTI0_Enable ;
 80002a0:	4b1a      	ldr	r3, [pc, #104]	; (800030c <Enable_NVIC+0xc4>)
 80002a2:	681b      	ldr	r3, [r3, #0]
 80002a4:	4a19      	ldr	r2, [pc, #100]	; (800030c <Enable_NVIC+0xc4>)
 80002a6:	f043 0340 	orr.w	r3, r3, #64	; 0x40
 80002aa:	6013      	str	r3, [r2, #0]
		break;
 80002ac:	e029      	b.n	8000302 <Enable_NVIC+0xba>
	case 1:
		NVIC_IRQ7_EXTI1_Enable;
 80002ae:	4b17      	ldr	r3, [pc, #92]	; (800030c <Enable_NVIC+0xc4>)
 80002b0:	681b      	ldr	r3, [r3, #0]
 80002b2:	4a16      	ldr	r2, [pc, #88]	; (800030c <Enable_NVIC+0xc4>)
 80002b4:	f043 0380 	orr.w	r3, r3, #128	; 0x80
 80002b8:	6013      	str	r3, [r2, #0]
		break ;
 80002ba:	e022      	b.n	8000302 <Enable_NVIC+0xba>
	case 2:
		NVIC_IRQ8_EXTI2_Enable ;
 80002bc:	4b13      	ldr	r3, [pc, #76]	; (800030c <Enable_NVIC+0xc4>)
 80002be:	681b      	ldr	r3, [r3, #0]
 80002c0:	4a12      	ldr	r2, [pc, #72]	; (800030c <Enable_NVIC+0xc4>)
 80002c2:	f443 7380 	orr.w	r3, r3, #256	; 0x100
 80002c6:	6013      	str	r3, [r2, #0]
		break ;
 80002c8:	e01b      	b.n	8000302 <Enable_NVIC+0xba>
	case 3:
		NVIC_IRQ9_EXTI3_Enable ;
 80002ca:	4b10      	ldr	r3, [pc, #64]	; (800030c <Enable_NVIC+0xc4>)
 80002cc:	681b      	ldr	r3, [r3, #0]
 80002ce:	4a0f      	ldr	r2, [pc, #60]	; (800030c <Enable_NVIC+0xc4>)
 80002d0:	f443 7300 	orr.w	r3, r3, #512	; 0x200
 80002d4:	6013      	str	r3, [r2, #0]
		break ;
 80002d6:	e014      	b.n	8000302 <Enable_NVIC+0xba>
	case 4:
		NVIC_IRQ10_EXTI4_Enable ;
 80002d8:	4b0c      	ldr	r3, [pc, #48]	; (800030c <Enable_NVIC+0xc4>)
 80002da:	681b      	ldr	r3, [r3, #0]
 80002dc:	4a0b      	ldr	r2, [pc, #44]	; (800030c <Enable_NVIC+0xc4>)
 80002de:	f443 6380 	orr.w	r3, r3, #1024	; 0x400
 80002e2:	6013      	str	r3, [r2, #0]
		break ;
 80002e4:	e00d      	b.n	8000302 <Enable_NVIC+0xba>
	case 5:
	case 6:
	case 7:
	case 8:
	case 9:
		NVIC_IRQ23_EXTI5_9_Enable;
 80002e6:	4b09      	ldr	r3, [pc, #36]	; (800030c <Enable_NVIC+0xc4>)
 80002e8:	681b      	ldr	r3, [r3, #0]
 80002ea:	4a08      	ldr	r2, [pc, #32]	; (800030c <Enable_NVIC+0xc4>)
 80002ec:	f443 0300 	orr.w	r3, r3, #8388608	; 0x800000
 80002f0:	6013      	str	r3, [r2, #0]
		break ;
 80002f2:	e006      	b.n	8000302 <Enable_NVIC+0xba>
	case 11:
	case 12:
	case 13:
	case 14:
	case 15:
		NVIC_IRQ40_EXTI10_15_Enable;
 80002f4:	4b06      	ldr	r3, [pc, #24]	; (8000310 <Enable_NVIC+0xc8>)
 80002f6:	681b      	ldr	r3, [r3, #0]
 80002f8:	4a05      	ldr	r2, [pc, #20]	; (8000310 <Enable_NVIC+0xc8>)
 80002fa:	f443 7380 	orr.w	r3, r3, #256	; 0x100
 80002fe:	6013      	str	r3, [r2, #0]
		break ;
 8000300:	bf00      	nop

	}
}
 8000302:	bf00      	nop
 8000304:	370c      	adds	r7, #12
 8000306:	46bd      	mov	sp, r7
 8000308:	bc80      	pop	{r7}
 800030a:	4770      	bx	lr
 800030c:	e000e100 	.word	0xe000e100
 8000310:	e000e104 	.word	0xe000e104

08000314 <Disable_NVIC>:

void Disable_NVIC (uint16_t IRQ_NUMBER)
{
 8000314:	b480      	push	{r7}
 8000316:	b083      	sub	sp, #12
 8000318:	af00      	add	r7, sp, #0
 800031a:	4603      	mov	r3, r0
 800031c:	80fb      	strh	r3, [r7, #6]
	switch (IRQ_NUMBER)
 800031e:	88fb      	ldrh	r3, [r7, #6]
 8000320:	2b0f      	cmp	r3, #15
 8000322:	d854      	bhi.n	80003ce <Disable_NVIC+0xba>
 8000324:	a201      	add	r2, pc, #4	; (adr r2, 800032c <Disable_NVIC+0x18>)
 8000326:	f852 f023 	ldr.w	pc, [r2, r3, lsl #2]
 800032a:	bf00      	nop
 800032c:	0800036d 	.word	0x0800036d
 8000330:	0800037b 	.word	0x0800037b
 8000334:	08000389 	.word	0x08000389
 8000338:	08000397 	.word	0x08000397
 800033c:	080003a5 	.word	0x080003a5
 8000340:	080003b3 	.word	0x080003b3
 8000344:	080003b3 	.word	0x080003b3
 8000348:	080003b3 	.word	0x080003b3
 800034c:	080003b3 	.word	0x080003b3
 8000350:	080003b3 	.word	0x080003b3
 8000354:	080003c1 	.word	0x080003c1
 8000358:	080003c1 	.word	0x080003c1
 800035c:	080003c1 	.word	0x080003c1
 8000360:	080003c1 	.word	0x080003c1
 8000364:	080003c1 	.word	0x080003c1
 8000368:	080003c1 	.word	0x080003c1
		{
		case 0:
			NVIC_IRQ6_EXTI0_Disable ;
 800036c:	4b1a      	ldr	r3, [pc, #104]	; (80003d8 <Disable_NVIC+0xc4>)
 800036e:	681b      	ldr	r3, [r3, #0]
 8000370:	4a19      	ldr	r2, [pc, #100]	; (80003d8 <Disable_NVIC+0xc4>)
 8000372:	f043 0340 	orr.w	r3, r3, #64	; 0x40
 8000376:	6013      	str	r3, [r2, #0]
			break;
 8000378:	e029      	b.n	80003ce <Disable_NVIC+0xba>
		case 1:
			NVIC_IRQ7_EXTI1_Disable ;
 800037a:	4b17      	ldr	r3, [pc, #92]	; (80003d8 <Disable_NVIC+0xc4>)
 800037c:	681b      	ldr	r3, [r3, #0]
 800037e:	4a16      	ldr	r2, [pc, #88]	; (80003d8 <Disable_NVIC+0xc4>)
 8000380:	f043 0380 	orr.w	r3, r3, #128	; 0x80
 8000384:	6013      	str	r3, [r2, #0]
			break ;
 8000386:	e022      	b.n	80003ce <Disable_NVIC+0xba>
		case 2:
			NVIC_IRQ8_EXTI2_Disable;
 8000388:	4b13      	ldr	r3, [pc, #76]	; (80003d8 <Disable_NVIC+0xc4>)
 800038a:	681b      	ldr	r3, [r3, #0]
 800038c:	4a12      	ldr	r2, [pc, #72]	; (80003d8 <Disable_NVIC+0xc4>)
 800038e:	f443 7380 	orr.w	r3, r3, #256	; 0x100
 8000392:	6013      	str	r3, [r2, #0]
			break ;
 8000394:	e01b      	b.n	80003ce <Disable_NVIC+0xba>
		case 3:
			NVIC_IRQ9_EXTI3_Disable;
 8000396:	4b10      	ldr	r3, [pc, #64]	; (80003d8 <Disable_NVIC+0xc4>)
 8000398:	681b      	ldr	r3, [r3, #0]
 800039a:	4a0f      	ldr	r2, [pc, #60]	; (80003d8 <Disable_NVIC+0xc4>)
 800039c:	f443 7300 	orr.w	r3, r3, #512	; 0x200
 80003a0:	6013      	str	r3, [r2, #0]
			break ;
 80003a2:	e014      	b.n	80003ce <Disable_NVIC+0xba>
		case 4:
			NVIC_IRQ10_EXTI4_Disable ;
 80003a4:	4b0c      	ldr	r3, [pc, #48]	; (80003d8 <Disable_NVIC+0xc4>)
 80003a6:	681b      	ldr	r3, [r3, #0]
 80003a8:	4a0b      	ldr	r2, [pc, #44]	; (80003d8 <Disable_NVIC+0xc4>)
 80003aa:	f443 6380 	orr.w	r3, r3, #1024	; 0x400
 80003ae:	6013      	str	r3, [r2, #0]
			break ;
 80003b0:	e00d      	b.n	80003ce <Disable_NVIC+0xba>
		case 5:
		case 6:
		case 7:
		case 8:
		case 9:
			NVIC_IRQ23_EXTI5_9_Disable;
 80003b2:	4b09      	ldr	r3, [pc, #36]	; (80003d8 <Disable_NVIC+0xc4>)
 80003b4:	681b      	ldr	r3, [r3, #0]
 80003b6:	4a08      	ldr	r2, [pc, #32]	; (80003d8 <Disable_NVIC+0xc4>)
 80003b8:	f443 0300 	orr.w	r3, r3, #8388608	; 0x800000
 80003bc:	6013      	str	r3, [r2, #0]
			break ;
 80003be:	e006      	b.n	80003ce <Disable_NVIC+0xba>
		case 11:
		case 12:
		case 13:
		case 14:
		case 15:
			NVIC_IRQ40_EXTI10_15_Disable;
 80003c0:	4b06      	ldr	r3, [pc, #24]	; (80003dc <Disable_NVIC+0xc8>)
 80003c2:	681b      	ldr	r3, [r3, #0]
 80003c4:	4a05      	ldr	r2, [pc, #20]	; (80003dc <Disable_NVIC+0xc8>)
 80003c6:	f443 7380 	orr.w	r3, r3, #256	; 0x100
 80003ca:	6013      	str	r3, [r2, #0]
			break ;
 80003cc:	bf00      	nop

		}

}
 80003ce:	bf00      	nop
 80003d0:	370c      	adds	r7, #12
 80003d2:	46bd      	mov	sp, r7
 80003d4:	bc80      	pop	{r7}
 80003d6:	4770      	bx	lr
 80003d8:	e000e180 	.word	0xe000e180
 80003dc:	e000e184 	.word	0xe000e184

080003e0 <Update_EXTI>:

void Update_EXTI (EXTI_Configure_Pin_t* EXTI_Config){
 80003e0:	b580      	push	{r7, lr}
 80003e2:	b084      	sub	sp, #16
 80003e4:	af00      	add	r7, sp, #0
 80003e6:	6078      	str	r0, [r7, #4]


	//1- Configure GPIO to be AF Input -> Floating INPUT
	GPIO_Configure_Pin_t PIN_CFG;
	PIN_CFG.GPOI_Pin_Number = EXTI_Config->EXTI_PIN.GPIO_PIN ;
 80003e8:	687b      	ldr	r3, [r7, #4]
 80003ea:	891b      	ldrh	r3, [r3, #8]
 80003ec:	813b      	strh	r3, [r7, #8]
	PIN_CFG.GPIO_Mode = GPIO_Floating_Input					 ;
 80003ee:	2301      	movs	r3, #1
 80003f0:	72bb      	strb	r3, [r7, #10]
	MCAL_GPIO_Init( EXTI_Config->EXTI_PIN.GPIO_PORT , &PIN_CFG );
 80003f2:	687b      	ldr	r3, [r7, #4]
 80003f4:	685b      	ldr	r3, [r3, #4]
 80003f6:	f107 0208 	add.w	r2, r7, #8
 80003fa:	4611      	mov	r1, r2
 80003fc:	4618      	mov	r0, r3
 80003fe:	f000 fa50 	bl	80008a2 <MCAL_GPIO_Init>
	//-------------------------------------------------------------------------------------------------------

	//2- UPDATE AFIO to Route between EXTI Line with PORT A,B,C,D
	uint8_t AFIO_EXTICR_RegNumber   = EXTI_Config->EXTI_PIN.EXTI_LINE / 4       ;
 8000402:	687b      	ldr	r3, [r7, #4]
 8000404:	881b      	ldrh	r3, [r3, #0]
 8000406:	089b      	lsrs	r3, r3, #2
 8000408:	b29b      	uxth	r3, r3
 800040a:	73fb      	strb	r3, [r7, #15]
	uint8_t AFIO_EXTICR_StartingBit = (EXTI_Config->EXTI_PIN.EXTI_LINE % 4) * 4 ;
 800040c:	687b      	ldr	r3, [r7, #4]
 800040e:	881b      	ldrh	r3, [r3, #0]
 8000410:	b2db      	uxtb	r3, r3
 8000412:	f003 0303 	and.w	r3, r3, #3
 8000416:	b2db      	uxtb	r3, r3
 8000418:	009b      	lsls	r3, r3, #2
 800041a:	73bb      	strb	r3, [r7, #14]

	//clear the four bit
	AFIO->EXTICR[AFIO_EXTICR_RegNumber] &= ~(0xF << AFIO_EXTICR_StartingBit );
 800041c:	4a5a      	ldr	r2, [pc, #360]	; (8000588 <Update_EXTI+0x1a8>)
 800041e:	7bfb      	ldrb	r3, [r7, #15]
 8000420:	3302      	adds	r3, #2
 8000422:	f852 2023 	ldr.w	r2, [r2, r3, lsl #2]
 8000426:	7bbb      	ldrb	r3, [r7, #14]
 8000428:	210f      	movs	r1, #15
 800042a:	fa01 f303 	lsl.w	r3, r1, r3
 800042e:	43db      	mvns	r3, r3
 8000430:	4618      	mov	r0, r3
 8000432:	4955      	ldr	r1, [pc, #340]	; (8000588 <Update_EXTI+0x1a8>)
 8000434:	7bfb      	ldrb	r3, [r7, #15]
 8000436:	4002      	ands	r2, r0
 8000438:	3302      	adds	r3, #2
 800043a:	f841 2023 	str.w	r2, [r1, r3, lsl #2]
	AFIO->EXTICR[AFIO_EXTICR_RegNumber] |= (((AFIO_GPIO_EXTI_Mapping(EXTI_Config->EXTI_PIN.GPIO_PORT)) & 0x0F)  << AFIO_EXTICR_StartingBit) ;
 800043e:	4a52      	ldr	r2, [pc, #328]	; (8000588 <Update_EXTI+0x1a8>)
 8000440:	7bfb      	ldrb	r3, [r7, #15]
 8000442:	3302      	adds	r3, #2
 8000444:	f852 2023 	ldr.w	r2, [r2, r3, lsl #2]
 8000448:	687b      	ldr	r3, [r7, #4]
 800044a:	685b      	ldr	r3, [r3, #4]
 800044c:	494f      	ldr	r1, [pc, #316]	; (800058c <Update_EXTI+0x1ac>)
 800044e:	428b      	cmp	r3, r1
 8000450:	d016      	beq.n	8000480 <Update_EXTI+0xa0>
 8000452:	687b      	ldr	r3, [r7, #4]
 8000454:	685b      	ldr	r3, [r3, #4]
 8000456:	494e      	ldr	r1, [pc, #312]	; (8000590 <Update_EXTI+0x1b0>)
 8000458:	428b      	cmp	r3, r1
 800045a:	d00f      	beq.n	800047c <Update_EXTI+0x9c>
 800045c:	687b      	ldr	r3, [r7, #4]
 800045e:	685b      	ldr	r3, [r3, #4]
 8000460:	494c      	ldr	r1, [pc, #304]	; (8000594 <Update_EXTI+0x1b4>)
 8000462:	428b      	cmp	r3, r1
 8000464:	d008      	beq.n	8000478 <Update_EXTI+0x98>
 8000466:	687b      	ldr	r3, [r7, #4]
 8000468:	685b      	ldr	r3, [r3, #4]
 800046a:	494b      	ldr	r1, [pc, #300]	; (8000598 <Update_EXTI+0x1b8>)
 800046c:	428b      	cmp	r3, r1
 800046e:	d101      	bne.n	8000474 <Update_EXTI+0x94>
 8000470:	2303      	movs	r3, #3
 8000472:	e006      	b.n	8000482 <Update_EXTI+0xa2>
 8000474:	2300      	movs	r3, #0
 8000476:	e004      	b.n	8000482 <Update_EXTI+0xa2>
 8000478:	2302      	movs	r3, #2
 800047a:	e002      	b.n	8000482 <Update_EXTI+0xa2>
 800047c:	2301      	movs	r3, #1
 800047e:	e000      	b.n	8000482 <Update_EXTI+0xa2>
 8000480:	2300      	movs	r3, #0
 8000482:	7bb9      	ldrb	r1, [r7, #14]
 8000484:	408b      	lsls	r3, r1
 8000486:	4618      	mov	r0, r3
 8000488:	493f      	ldr	r1, [pc, #252]	; (8000588 <Update_EXTI+0x1a8>)
 800048a:	7bfb      	ldrb	r3, [r7, #15]
 800048c:	4302      	orrs	r2, r0
 800048e:	3302      	adds	r3, #2
 8000490:	f841 2023 	str.w	r2, [r1, r3, lsl #2]
	//-------------------------------------------------------------------------------------------------------

	//3- Update Rising or falling Register
         EXTI->RTSR &= ~(EXTI_Config->EXTI_PIN.EXTI_LINE);
 8000494:	4b41      	ldr	r3, [pc, #260]	; (800059c <Update_EXTI+0x1bc>)
 8000496:	689b      	ldr	r3, [r3, #8]
 8000498:	687a      	ldr	r2, [r7, #4]
 800049a:	8812      	ldrh	r2, [r2, #0]
 800049c:	43d2      	mvns	r2, r2
 800049e:	4611      	mov	r1, r2
 80004a0:	4a3e      	ldr	r2, [pc, #248]	; (800059c <Update_EXTI+0x1bc>)
 80004a2:	400b      	ands	r3, r1
 80004a4:	6093      	str	r3, [r2, #8]
         EXTI->FTSR &= ~(EXTI_Config->EXTI_PIN.EXTI_LINE);
 80004a6:	4b3d      	ldr	r3, [pc, #244]	; (800059c <Update_EXTI+0x1bc>)
 80004a8:	68db      	ldr	r3, [r3, #12]
 80004aa:	687a      	ldr	r2, [r7, #4]
 80004ac:	8812      	ldrh	r2, [r2, #0]
 80004ae:	43d2      	mvns	r2, r2
 80004b0:	4611      	mov	r1, r2
 80004b2:	4a3a      	ldr	r2, [pc, #232]	; (800059c <Update_EXTI+0x1bc>)
 80004b4:	400b      	ands	r3, r1
 80004b6:	60d3      	str	r3, [r2, #12]


     if( EXTI_Config->EDGE_CASE == RISING_EDGE){
 80004b8:	687b      	ldr	r3, [r7, #4]
 80004ba:	7b1b      	ldrb	r3, [r3, #12]
 80004bc:	2b00      	cmp	r3, #0
 80004be:	d10b      	bne.n	80004d8 <Update_EXTI+0xf8>
   	  EXTI->RTSR |= (1 << EXTI_Config->EXTI_PIN.EXTI_LINE);
 80004c0:	4b36      	ldr	r3, [pc, #216]	; (800059c <Update_EXTI+0x1bc>)
 80004c2:	689b      	ldr	r3, [r3, #8]
 80004c4:	687a      	ldr	r2, [r7, #4]
 80004c6:	8812      	ldrh	r2, [r2, #0]
 80004c8:	4611      	mov	r1, r2
 80004ca:	2201      	movs	r2, #1
 80004cc:	408a      	lsls	r2, r1
 80004ce:	4611      	mov	r1, r2
 80004d0:	4a32      	ldr	r2, [pc, #200]	; (800059c <Update_EXTI+0x1bc>)
 80004d2:	430b      	orrs	r3, r1
 80004d4:	6093      	str	r3, [r2, #8]
 80004d6:	e025      	b.n	8000524 <Update_EXTI+0x144>
     }else if(EXTI_Config->EDGE_CASE == FALLING_EDGE){
 80004d8:	687b      	ldr	r3, [r7, #4]
 80004da:	7b1b      	ldrb	r3, [r3, #12]
 80004dc:	2b01      	cmp	r3, #1
 80004de:	d10b      	bne.n	80004f8 <Update_EXTI+0x118>

   	  EXTI->FTSR |= (1 << EXTI_Config->EXTI_PIN.EXTI_LINE);
 80004e0:	4b2e      	ldr	r3, [pc, #184]	; (800059c <Update_EXTI+0x1bc>)
 80004e2:	68db      	ldr	r3, [r3, #12]
 80004e4:	687a      	ldr	r2, [r7, #4]
 80004e6:	8812      	ldrh	r2, [r2, #0]
 80004e8:	4611      	mov	r1, r2
 80004ea:	2201      	movs	r2, #1
 80004ec:	408a      	lsls	r2, r1
 80004ee:	4611      	mov	r1, r2
 80004f0:	4a2a      	ldr	r2, [pc, #168]	; (800059c <Update_EXTI+0x1bc>)
 80004f2:	430b      	orrs	r3, r1
 80004f4:	60d3      	str	r3, [r2, #12]
 80004f6:	e015      	b.n	8000524 <Update_EXTI+0x144>

     }else{ // both rising and falling
    	  EXTI->RTSR |= (1 << EXTI_Config->EXTI_PIN.EXTI_LINE);
 80004f8:	4b28      	ldr	r3, [pc, #160]	; (800059c <Update_EXTI+0x1bc>)
 80004fa:	689b      	ldr	r3, [r3, #8]
 80004fc:	687a      	ldr	r2, [r7, #4]
 80004fe:	8812      	ldrh	r2, [r2, #0]
 8000500:	4611      	mov	r1, r2
 8000502:	2201      	movs	r2, #1
 8000504:	408a      	lsls	r2, r1
 8000506:	4611      	mov	r1, r2
 8000508:	4a24      	ldr	r2, [pc, #144]	; (800059c <Update_EXTI+0x1bc>)
 800050a:	430b      	orrs	r3, r1
 800050c:	6093      	str	r3, [r2, #8]
    	  EXTI->FTSR |= (1<< EXTI_Config->EXTI_PIN.EXTI_LINE);
 800050e:	4b23      	ldr	r3, [pc, #140]	; (800059c <Update_EXTI+0x1bc>)
 8000510:	68db      	ldr	r3, [r3, #12]
 8000512:	687a      	ldr	r2, [r7, #4]
 8000514:	8812      	ldrh	r2, [r2, #0]
 8000516:	4611      	mov	r1, r2
 8000518:	2201      	movs	r2, #1
 800051a:	408a      	lsls	r2, r1
 800051c:	4611      	mov	r1, r2
 800051e:	4a1f      	ldr	r2, [pc, #124]	; (800059c <Update_EXTI+0x1bc>)
 8000520:	430b      	orrs	r3, r1
 8000522:	60d3      	str	r3, [r2, #12]
     }

 	//-------------------------------------------------------------------------------------------------------
 	//4- Update IRQ Handling CALLBACK
     GP_IRQ_FUNC_CALLBACK[EXTI_Config->EXTI_PIN.EXTI_LINE] = EXTI_Config->P_IRQ_FUNC_CALLBACK;
 8000524:	687b      	ldr	r3, [r7, #4]
 8000526:	881b      	ldrh	r3, [r3, #0]
 8000528:	4619      	mov	r1, r3
 800052a:	687b      	ldr	r3, [r7, #4]
 800052c:	691b      	ldr	r3, [r3, #16]
 800052e:	4a1c      	ldr	r2, [pc, #112]	; (80005a0 <Update_EXTI+0x1c0>)
 8000530:	f842 3021 	str.w	r3, [r2, r1, lsl #2]

  	//-------------------------------------------------------------------------------------------------------
 	//5- Enable/Disable IRQ EXTI & NVIC

 	if (EXTI_Config->IRQ_E_D == ENABLE_IRQ_EXTI )
 8000534:	687b      	ldr	r3, [r7, #4]
 8000536:	7b5b      	ldrb	r3, [r3, #13]
 8000538:	2b01      	cmp	r3, #1
 800053a:	d110      	bne.n	800055e <Update_EXTI+0x17e>
 	{
 		EXTI->IMR |= (1 << EXTI_Config->EXTI_PIN.EXTI_LINE);
 800053c:	4b17      	ldr	r3, [pc, #92]	; (800059c <Update_EXTI+0x1bc>)
 800053e:	681b      	ldr	r3, [r3, #0]
 8000540:	687a      	ldr	r2, [r7, #4]
 8000542:	8812      	ldrh	r2, [r2, #0]
 8000544:	4611      	mov	r1, r2
 8000546:	2201      	movs	r2, #1
 8000548:	408a      	lsls	r2, r1
 800054a:	4611      	mov	r1, r2
 800054c:	4a13      	ldr	r2, [pc, #76]	; (800059c <Update_EXTI+0x1bc>)
 800054e:	430b      	orrs	r3, r1
 8000550:	6013      	str	r3, [r2, #0]
 		Enable_NVIC ( EXTI_Config->EXTI_PIN.EXTI_LINE ) ;
 8000552:	687b      	ldr	r3, [r7, #4]
 8000554:	881b      	ldrh	r3, [r3, #0]
 8000556:	4618      	mov	r0, r3
 8000558:	f7ff fe76 	bl	8000248 <Enable_NVIC>
 	}else
 	{
 		EXTI->IMR &= ~(1<< EXTI_Config->EXTI_PIN.EXTI_LINE);
 		Disable_NVIC ( EXTI_Config->EXTI_PIN.EXTI_LINE) ;
 	}
 }
 800055c:	e010      	b.n	8000580 <Update_EXTI+0x1a0>
 		EXTI->IMR &= ~(1<< EXTI_Config->EXTI_PIN.EXTI_LINE);
 800055e:	4b0f      	ldr	r3, [pc, #60]	; (800059c <Update_EXTI+0x1bc>)
 8000560:	681b      	ldr	r3, [r3, #0]
 8000562:	687a      	ldr	r2, [r7, #4]
 8000564:	8812      	ldrh	r2, [r2, #0]
 8000566:	4611      	mov	r1, r2
 8000568:	2201      	movs	r2, #1
 800056a:	408a      	lsls	r2, r1
 800056c:	43d2      	mvns	r2, r2
 800056e:	4611      	mov	r1, r2
 8000570:	4a0a      	ldr	r2, [pc, #40]	; (800059c <Update_EXTI+0x1bc>)
 8000572:	400b      	ands	r3, r1
 8000574:	6013      	str	r3, [r2, #0]
 		Disable_NVIC ( EXTI_Config->EXTI_PIN.EXTI_LINE) ;
 8000576:	687b      	ldr	r3, [r7, #4]
 8000578:	881b      	ldrh	r3, [r3, #0]
 800057a:	4618      	mov	r0, r3
 800057c:	f7ff feca 	bl	8000314 <Disable_NVIC>
 }
 8000580:	bf00      	nop
 8000582:	3710      	adds	r7, #16
 8000584:	46bd      	mov	sp, r7
 8000586:	bd80      	pop	{r7, pc}
 8000588:	40010000 	.word	0x40010000
 800058c:	40010800 	.word	0x40010800
 8000590:	40010c00 	.word	0x40010c00
 8000594:	40011000 	.word	0x40011000
 8000598:	40011400 	.word	0x40011400
 800059c:	40010400 	.word	0x40010400
 80005a0:	2000002c 	.word	0x2000002c

080005a4 <MCAL_EXTI_GPIO_Init>:
 * @param [in]   		-EXTI_Config set by @ref EXTI_define, EXTI_Trigger_define and EXTI_IRQ_define
 * @retval 				-none
 * Note					-none
 */

void MCAL_EXTI_GPIO_Init (EXTI_Configure_Pin_t* EXTI_Config){
 80005a4:	b580      	push	{r7, lr}
 80005a6:	b082      	sub	sp, #8
 80005a8:	af00      	add	r7, sp, #0
 80005aa:	6078      	str	r0, [r7, #4]

	Update_EXTI(EXTI_Config);
 80005ac:	6878      	ldr	r0, [r7, #4]
 80005ae:	f7ff ff17 	bl	80003e0 <Update_EXTI>

}
 80005b2:	bf00      	nop
 80005b4:	3708      	adds	r7, #8
 80005b6:	46bd      	mov	sp, r7
 80005b8:	bd80      	pop	{r7, pc}
	...

080005bc <EXTI0_IRQHandler>:
///**===========			ISR  Functions        =========================
///**================================================================
// */

void EXTI0_IRQHandler (void)
{
 80005bc:	b580      	push	{r7, lr}
 80005be:	af00      	add	r7, sp, #0
	//cleared by writing a ‘1’ into the bit Pending register (EXTI_PR)
	EXTI->PR |= 1<<0 ;
 80005c0:	4b05      	ldr	r3, [pc, #20]	; (80005d8 <EXTI0_IRQHandler+0x1c>)
 80005c2:	695b      	ldr	r3, [r3, #20]
 80005c4:	4a04      	ldr	r2, [pc, #16]	; (80005d8 <EXTI0_IRQHandler+0x1c>)
 80005c6:	f043 0301 	orr.w	r3, r3, #1
 80005ca:	6153      	str	r3, [r2, #20]
	//CALL IRQ_CALL
	GP_IRQ_FUNC_CALLBACK[0]() ;
 80005cc:	4b03      	ldr	r3, [pc, #12]	; (80005dc <EXTI0_IRQHandler+0x20>)
 80005ce:	681b      	ldr	r3, [r3, #0]
 80005d0:	4798      	blx	r3
}
 80005d2:	bf00      	nop
 80005d4:	bd80      	pop	{r7, pc}
 80005d6:	bf00      	nop
 80005d8:	40010400 	.word	0x40010400
 80005dc:	2000002c 	.word	0x2000002c

080005e0 <EXTI1_IRQHandler>:

void EXTI1_IRQHandler (void) {
 80005e0:	b580      	push	{r7, lr}
 80005e2:	af00      	add	r7, sp, #0
	EXTI->PR |=  (1<<1) ;
 80005e4:	4b05      	ldr	r3, [pc, #20]	; (80005fc <EXTI1_IRQHandler+0x1c>)
 80005e6:	695b      	ldr	r3, [r3, #20]
 80005e8:	4a04      	ldr	r2, [pc, #16]	; (80005fc <EXTI1_IRQHandler+0x1c>)
 80005ea:	f043 0302 	orr.w	r3, r3, #2
 80005ee:	6153      	str	r3, [r2, #20]

	GP_IRQ_FUNC_CALLBACK[1]() ;
 80005f0:	4b03      	ldr	r3, [pc, #12]	; (8000600 <EXTI1_IRQHandler+0x20>)
 80005f2:	685b      	ldr	r3, [r3, #4]
 80005f4:	4798      	blx	r3

}
 80005f6:	bf00      	nop
 80005f8:	bd80      	pop	{r7, pc}
 80005fa:	bf00      	nop
 80005fc:	40010400 	.word	0x40010400
 8000600:	2000002c 	.word	0x2000002c

08000604 <EXTI2_IRQHandler>:


void EXTI2_IRQHandler (void) {
 8000604:	b580      	push	{r7, lr}
 8000606:	af00      	add	r7, sp, #0
	EXTI->PR |=  (1<<2) ;
 8000608:	4b05      	ldr	r3, [pc, #20]	; (8000620 <EXTI2_IRQHandler+0x1c>)
 800060a:	695b      	ldr	r3, [r3, #20]
 800060c:	4a04      	ldr	r2, [pc, #16]	; (8000620 <EXTI2_IRQHandler+0x1c>)
 800060e:	f043 0304 	orr.w	r3, r3, #4
 8000612:	6153      	str	r3, [r2, #20]

	GP_IRQ_FUNC_CALLBACK[2]() ;
 8000614:	4b03      	ldr	r3, [pc, #12]	; (8000624 <EXTI2_IRQHandler+0x20>)
 8000616:	689b      	ldr	r3, [r3, #8]
 8000618:	4798      	blx	r3

}
 800061a:	bf00      	nop
 800061c:	bd80      	pop	{r7, pc}
 800061e:	bf00      	nop
 8000620:	40010400 	.word	0x40010400
 8000624:	2000002c 	.word	0x2000002c

08000628 <EXTI3_IRQHandler>:


void EXTI3_IRQHandler (void) {
 8000628:	b580      	push	{r7, lr}
 800062a:	af00      	add	r7, sp, #0
	EXTI->PR |=  (1<<3) ;
 800062c:	4b05      	ldr	r3, [pc, #20]	; (8000644 <EXTI3_IRQHandler+0x1c>)
 800062e:	695b      	ldr	r3, [r3, #20]
 8000630:	4a04      	ldr	r2, [pc, #16]	; (8000644 <EXTI3_IRQHandler+0x1c>)
 8000632:	f043 0308 	orr.w	r3, r3, #8
 8000636:	6153      	str	r3, [r2, #20]

	GP_IRQ_FUNC_CALLBACK[3]() ;
 8000638:	4b03      	ldr	r3, [pc, #12]	; (8000648 <EXTI3_IRQHandler+0x20>)
 800063a:	68db      	ldr	r3, [r3, #12]
 800063c:	4798      	blx	r3

}
 800063e:	bf00      	nop
 8000640:	bd80      	pop	{r7, pc}
 8000642:	bf00      	nop
 8000644:	40010400 	.word	0x40010400
 8000648:	2000002c 	.word	0x2000002c

0800064c <EXTI4_IRQHandler>:


void EXTI4_IRQHandler (void) {
 800064c:	b580      	push	{r7, lr}
 800064e:	af00      	add	r7, sp, #0
	EXTI->PR |=  (1<<4) ;
 8000650:	4b05      	ldr	r3, [pc, #20]	; (8000668 <EXTI4_IRQHandler+0x1c>)
 8000652:	695b      	ldr	r3, [r3, #20]
 8000654:	4a04      	ldr	r2, [pc, #16]	; (8000668 <EXTI4_IRQHandler+0x1c>)
 8000656:	f043 0310 	orr.w	r3, r3, #16
 800065a:	6153      	str	r3, [r2, #20]
	GP_IRQ_FUNC_CALLBACK[4]() ;
 800065c:	4b03      	ldr	r3, [pc, #12]	; (800066c <EXTI4_IRQHandler+0x20>)
 800065e:	691b      	ldr	r3, [r3, #16]
 8000660:	4798      	blx	r3

}
 8000662:	bf00      	nop
 8000664:	bd80      	pop	{r7, pc}
 8000666:	bf00      	nop
 8000668:	40010400 	.word	0x40010400
 800066c:	2000002c 	.word	0x2000002c

08000670 <EXTI9_5_IRQHandler>:


void EXTI9_5_IRQHandler (void)
{
 8000670:	b580      	push	{r7, lr}
 8000672:	af00      	add	r7, sp, #0
	if (EXTI->PR & 1<<5 ) {	EXTI->PR |=  (1<<5)    ; GP_IRQ_FUNC_CALLBACK[5]() ;   }
 8000674:	4b26      	ldr	r3, [pc, #152]	; (8000710 <EXTI9_5_IRQHandler+0xa0>)
 8000676:	695b      	ldr	r3, [r3, #20]
 8000678:	f003 0320 	and.w	r3, r3, #32
 800067c:	2b00      	cmp	r3, #0
 800067e:	d008      	beq.n	8000692 <EXTI9_5_IRQHandler+0x22>
 8000680:	4b23      	ldr	r3, [pc, #140]	; (8000710 <EXTI9_5_IRQHandler+0xa0>)
 8000682:	695b      	ldr	r3, [r3, #20]
 8000684:	4a22      	ldr	r2, [pc, #136]	; (8000710 <EXTI9_5_IRQHandler+0xa0>)
 8000686:	f043 0320 	orr.w	r3, r3, #32
 800068a:	6153      	str	r3, [r2, #20]
 800068c:	4b21      	ldr	r3, [pc, #132]	; (8000714 <EXTI9_5_IRQHandler+0xa4>)
 800068e:	695b      	ldr	r3, [r3, #20]
 8000690:	4798      	blx	r3
	if (EXTI->PR & 1<<6 ) {	EXTI->PR |=  (1<<6)    ; GP_IRQ_FUNC_CALLBACK[6]() ;   }
 8000692:	4b1f      	ldr	r3, [pc, #124]	; (8000710 <EXTI9_5_IRQHandler+0xa0>)
 8000694:	695b      	ldr	r3, [r3, #20]
 8000696:	f003 0340 	and.w	r3, r3, #64	; 0x40
 800069a:	2b00      	cmp	r3, #0
 800069c:	d008      	beq.n	80006b0 <EXTI9_5_IRQHandler+0x40>
 800069e:	4b1c      	ldr	r3, [pc, #112]	; (8000710 <EXTI9_5_IRQHandler+0xa0>)
 80006a0:	695b      	ldr	r3, [r3, #20]
 80006a2:	4a1b      	ldr	r2, [pc, #108]	; (8000710 <EXTI9_5_IRQHandler+0xa0>)
 80006a4:	f043 0340 	orr.w	r3, r3, #64	; 0x40
 80006a8:	6153      	str	r3, [r2, #20]
 80006aa:	4b1a      	ldr	r3, [pc, #104]	; (8000714 <EXTI9_5_IRQHandler+0xa4>)
 80006ac:	699b      	ldr	r3, [r3, #24]
 80006ae:	4798      	blx	r3
	if (EXTI->PR & 1<<7 ) {	EXTI->PR |=  (1<<7)    ; GP_IRQ_FUNC_CALLBACK[7]() ;   }
 80006b0:	4b17      	ldr	r3, [pc, #92]	; (8000710 <EXTI9_5_IRQHandler+0xa0>)
 80006b2:	695b      	ldr	r3, [r3, #20]
 80006b4:	f003 0380 	and.w	r3, r3, #128	; 0x80
 80006b8:	2b00      	cmp	r3, #0
 80006ba:	d008      	beq.n	80006ce <EXTI9_5_IRQHandler+0x5e>
 80006bc:	4b14      	ldr	r3, [pc, #80]	; (8000710 <EXTI9_5_IRQHandler+0xa0>)
 80006be:	695b      	ldr	r3, [r3, #20]
 80006c0:	4a13      	ldr	r2, [pc, #76]	; (8000710 <EXTI9_5_IRQHandler+0xa0>)
 80006c2:	f043 0380 	orr.w	r3, r3, #128	; 0x80
 80006c6:	6153      	str	r3, [r2, #20]
 80006c8:	4b12      	ldr	r3, [pc, #72]	; (8000714 <EXTI9_5_IRQHandler+0xa4>)
 80006ca:	69db      	ldr	r3, [r3, #28]
 80006cc:	4798      	blx	r3
	if (EXTI->PR & 1<<8 ) {	EXTI->PR |=  (1<<8)    ; GP_IRQ_FUNC_CALLBACK[8]() ;   }
 80006ce:	4b10      	ldr	r3, [pc, #64]	; (8000710 <EXTI9_5_IRQHandler+0xa0>)
 80006d0:	695b      	ldr	r3, [r3, #20]
 80006d2:	f403 7380 	and.w	r3, r3, #256	; 0x100
 80006d6:	2b00      	cmp	r3, #0
 80006d8:	d008      	beq.n	80006ec <EXTI9_5_IRQHandler+0x7c>
 80006da:	4b0d      	ldr	r3, [pc, #52]	; (8000710 <EXTI9_5_IRQHandler+0xa0>)
 80006dc:	695b      	ldr	r3, [r3, #20]
 80006de:	4a0c      	ldr	r2, [pc, #48]	; (8000710 <EXTI9_5_IRQHandler+0xa0>)
 80006e0:	f443 7380 	orr.w	r3, r3, #256	; 0x100
 80006e4:	6153      	str	r3, [r2, #20]
 80006e6:	4b0b      	ldr	r3, [pc, #44]	; (8000714 <EXTI9_5_IRQHandler+0xa4>)
 80006e8:	6a1b      	ldr	r3, [r3, #32]
 80006ea:	4798      	blx	r3
	if (EXTI->PR & 1<<9 ) {	EXTI->PR |=  (1<<9)    ; GP_IRQ_FUNC_CALLBACK[9]() ;   }
 80006ec:	4b08      	ldr	r3, [pc, #32]	; (8000710 <EXTI9_5_IRQHandler+0xa0>)
 80006ee:	695b      	ldr	r3, [r3, #20]
 80006f0:	f403 7300 	and.w	r3, r3, #512	; 0x200
 80006f4:	2b00      	cmp	r3, #0
 80006f6:	d008      	beq.n	800070a <EXTI9_5_IRQHandler+0x9a>
 80006f8:	4b05      	ldr	r3, [pc, #20]	; (8000710 <EXTI9_5_IRQHandler+0xa0>)
 80006fa:	695b      	ldr	r3, [r3, #20]
 80006fc:	4a04      	ldr	r2, [pc, #16]	; (8000710 <EXTI9_5_IRQHandler+0xa0>)
 80006fe:	f443 7300 	orr.w	r3, r3, #512	; 0x200
 8000702:	6153      	str	r3, [r2, #20]
 8000704:	4b03      	ldr	r3, [pc, #12]	; (8000714 <EXTI9_5_IRQHandler+0xa4>)
 8000706:	6a5b      	ldr	r3, [r3, #36]	; 0x24
 8000708:	4798      	blx	r3

}
 800070a:	bf00      	nop
 800070c:	bd80      	pop	{r7, pc}
 800070e:	bf00      	nop
 8000710:	40010400 	.word	0x40010400
 8000714:	2000002c 	.word	0x2000002c

08000718 <EXTI15_10_IRQHandler>:
void EXTI15_10_IRQHandler (void)
{
 8000718:	b580      	push	{r7, lr}
 800071a:	af00      	add	r7, sp, #0
	if (EXTI->PR & 1<<10 ) {	EXTI->PR |=  (1<<10)    ; GP_IRQ_FUNC_CALLBACK[10]() ;   }
 800071c:	4b2d      	ldr	r3, [pc, #180]	; (80007d4 <EXTI15_10_IRQHandler+0xbc>)
 800071e:	695b      	ldr	r3, [r3, #20]
 8000720:	f403 6380 	and.w	r3, r3, #1024	; 0x400
 8000724:	2b00      	cmp	r3, #0
 8000726:	d008      	beq.n	800073a <EXTI15_10_IRQHandler+0x22>
 8000728:	4b2a      	ldr	r3, [pc, #168]	; (80007d4 <EXTI15_10_IRQHandler+0xbc>)
 800072a:	695b      	ldr	r3, [r3, #20]
 800072c:	4a29      	ldr	r2, [pc, #164]	; (80007d4 <EXTI15_10_IRQHandler+0xbc>)
 800072e:	f443 6380 	orr.w	r3, r3, #1024	; 0x400
 8000732:	6153      	str	r3, [r2, #20]
 8000734:	4b28      	ldr	r3, [pc, #160]	; (80007d8 <EXTI15_10_IRQHandler+0xc0>)
 8000736:	6a9b      	ldr	r3, [r3, #40]	; 0x28
 8000738:	4798      	blx	r3
	if (EXTI->PR & 1<<11 ) {	EXTI->PR |=  (1<<11)    ; GP_IRQ_FUNC_CALLBACK[11]() ;   }
 800073a:	4b26      	ldr	r3, [pc, #152]	; (80007d4 <EXTI15_10_IRQHandler+0xbc>)
 800073c:	695b      	ldr	r3, [r3, #20]
 800073e:	f403 6300 	and.w	r3, r3, #2048	; 0x800
 8000742:	2b00      	cmp	r3, #0
 8000744:	d008      	beq.n	8000758 <EXTI15_10_IRQHandler+0x40>
 8000746:	4b23      	ldr	r3, [pc, #140]	; (80007d4 <EXTI15_10_IRQHandler+0xbc>)
 8000748:	695b      	ldr	r3, [r3, #20]
 800074a:	4a22      	ldr	r2, [pc, #136]	; (80007d4 <EXTI15_10_IRQHandler+0xbc>)
 800074c:	f443 6300 	orr.w	r3, r3, #2048	; 0x800
 8000750:	6153      	str	r3, [r2, #20]
 8000752:	4b21      	ldr	r3, [pc, #132]	; (80007d8 <EXTI15_10_IRQHandler+0xc0>)
 8000754:	6adb      	ldr	r3, [r3, #44]	; 0x2c
 8000756:	4798      	blx	r3
	if (EXTI->PR & 1<<12 ) {	EXTI->PR |=  (1<<12)    ; GP_IRQ_FUNC_CALLBACK[12]() ;   }
 8000758:	4b1e      	ldr	r3, [pc, #120]	; (80007d4 <EXTI15_10_IRQHandler+0xbc>)
 800075a:	695b      	ldr	r3, [r3, #20]
 800075c:	f403 5380 	and.w	r3, r3, #4096	; 0x1000
 8000760:	2b00      	cmp	r3, #0
 8000762:	d008      	beq.n	8000776 <EXTI15_10_IRQHandler+0x5e>
 8000764:	4b1b      	ldr	r3, [pc, #108]	; (80007d4 <EXTI15_10_IRQHandler+0xbc>)
 8000766:	695b      	ldr	r3, [r3, #20]
 8000768:	4a1a      	ldr	r2, [pc, #104]	; (80007d4 <EXTI15_10_IRQHandler+0xbc>)
 800076a:	f443 5380 	orr.w	r3, r3, #4096	; 0x1000
 800076e:	6153      	str	r3, [r2, #20]
 8000770:	4b19      	ldr	r3, [pc, #100]	; (80007d8 <EXTI15_10_IRQHandler+0xc0>)
 8000772:	6b1b      	ldr	r3, [r3, #48]	; 0x30
 8000774:	4798      	blx	r3
	if (EXTI->PR & 1<<13 ) {	EXTI->PR |=  (1<<13)    ; GP_IRQ_FUNC_CALLBACK[13]() ;   }
 8000776:	4b17      	ldr	r3, [pc, #92]	; (80007d4 <EXTI15_10_IRQHandler+0xbc>)
 8000778:	695b      	ldr	r3, [r3, #20]
 800077a:	f403 5300 	and.w	r3, r3, #8192	; 0x2000
 800077e:	2b00      	cmp	r3, #0
 8000780:	d008      	beq.n	8000794 <EXTI15_10_IRQHandler+0x7c>
 8000782:	4b14      	ldr	r3, [pc, #80]	; (80007d4 <EXTI15_10_IRQHandler+0xbc>)
 8000784:	695b      	ldr	r3, [r3, #20]
 8000786:	4a13      	ldr	r2, [pc, #76]	; (80007d4 <EXTI15_10_IRQHandler+0xbc>)
 8000788:	f443 5300 	orr.w	r3, r3, #8192	; 0x2000
 800078c:	6153      	str	r3, [r2, #20]
 800078e:	4b12      	ldr	r3, [pc, #72]	; (80007d8 <EXTI15_10_IRQHandler+0xc0>)
 8000790:	6b5b      	ldr	r3, [r3, #52]	; 0x34
 8000792:	4798      	blx	r3
	if (EXTI->PR & 1<<14 ) {	EXTI->PR |=  (1<<14)    ; GP_IRQ_FUNC_CALLBACK[14]() ;   }
 8000794:	4b0f      	ldr	r3, [pc, #60]	; (80007d4 <EXTI15_10_IRQHandler+0xbc>)
 8000796:	695b      	ldr	r3, [r3, #20]
 8000798:	f403 4380 	and.w	r3, r3, #16384	; 0x4000
 800079c:	2b00      	cmp	r3, #0
 800079e:	d008      	beq.n	80007b2 <EXTI15_10_IRQHandler+0x9a>
 80007a0:	4b0c      	ldr	r3, [pc, #48]	; (80007d4 <EXTI15_10_IRQHandler+0xbc>)
 80007a2:	695b      	ldr	r3, [r3, #20]
 80007a4:	4a0b      	ldr	r2, [pc, #44]	; (80007d4 <EXTI15_10_IRQHandler+0xbc>)
 80007a6:	f443 4380 	orr.w	r3, r3, #16384	; 0x4000
 80007aa:	6153      	str	r3, [r2, #20]
 80007ac:	4b0a      	ldr	r3, [pc, #40]	; (80007d8 <EXTI15_10_IRQHandler+0xc0>)
 80007ae:	6b9b      	ldr	r3, [r3, #56]	; 0x38
 80007b0:	4798      	blx	r3
	if (EXTI->PR & 1<<15 ) {	EXTI->PR |=  (1<<15)    ; GP_IRQ_FUNC_CALLBACK[15]() ;   }
 80007b2:	4b08      	ldr	r3, [pc, #32]	; (80007d4 <EXTI15_10_IRQHandler+0xbc>)
 80007b4:	695b      	ldr	r3, [r3, #20]
 80007b6:	f403 4300 	and.w	r3, r3, #32768	; 0x8000
 80007ba:	2b00      	cmp	r3, #0
 80007bc:	d008      	beq.n	80007d0 <EXTI15_10_IRQHandler+0xb8>
 80007be:	4b05      	ldr	r3, [pc, #20]	; (80007d4 <EXTI15_10_IRQHandler+0xbc>)
 80007c0:	695b      	ldr	r3, [r3, #20]
 80007c2:	4a04      	ldr	r2, [pc, #16]	; (80007d4 <EXTI15_10_IRQHandler+0xbc>)
 80007c4:	f443 4300 	orr.w	r3, r3, #32768	; 0x8000
 80007c8:	6153      	str	r3, [r2, #20]
 80007ca:	4b03      	ldr	r3, [pc, #12]	; (80007d8 <EXTI15_10_IRQHandler+0xc0>)
 80007cc:	6bdb      	ldr	r3, [r3, #60]	; 0x3c
 80007ce:	4798      	blx	r3

}
 80007d0:	bf00      	nop
 80007d2:	bd80      	pop	{r7, pc}
 80007d4:	40010400 	.word	0x40010400
 80007d8:	2000002c 	.word	0x2000002c

080007dc <Get_Position_in_CRL_CRH>:
#include "GPIO.h"

#include "stm32f103x6.h"

uint8_t Get_Position_in_CRL_CRH(uint16_t PinNumber)
{
 80007dc:	b480      	push	{r7}
 80007de:	b083      	sub	sp, #12
 80007e0:	af00      	add	r7, sp, #0
 80007e2:	4603      	mov	r3, r0
 80007e4:	80fb      	strh	r3, [r7, #6]
	switch (PinNumber)
 80007e6:	88fb      	ldrh	r3, [r7, #6]
 80007e8:	2b80      	cmp	r3, #128	; 0x80
 80007ea:	d042      	beq.n	8000872 <Get_Position_in_CRL_CRH+0x96>
 80007ec:	2b80      	cmp	r3, #128	; 0x80
 80007ee:	dc11      	bgt.n	8000814 <Get_Position_in_CRL_CRH+0x38>
 80007f0:	2b08      	cmp	r3, #8
 80007f2:	d036      	beq.n	8000862 <Get_Position_in_CRL_CRH+0x86>
 80007f4:	2b08      	cmp	r3, #8
 80007f6:	dc06      	bgt.n	8000806 <Get_Position_in_CRL_CRH+0x2a>
 80007f8:	2b02      	cmp	r3, #2
 80007fa:	d02e      	beq.n	800085a <Get_Position_in_CRL_CRH+0x7e>
 80007fc:	2b04      	cmp	r3, #4
 80007fe:	d02e      	beq.n	800085e <Get_Position_in_CRL_CRH+0x82>
 8000800:	2b01      	cmp	r3, #1
 8000802:	d028      	beq.n	8000856 <Get_Position_in_CRL_CRH+0x7a>
 8000804:	e047      	b.n	8000896 <Get_Position_in_CRL_CRH+0xba>
 8000806:	2b20      	cmp	r3, #32
 8000808:	d02f      	beq.n	800086a <Get_Position_in_CRL_CRH+0x8e>
 800080a:	2b40      	cmp	r3, #64	; 0x40
 800080c:	d02f      	beq.n	800086e <Get_Position_in_CRL_CRH+0x92>
 800080e:	2b10      	cmp	r3, #16
 8000810:	d029      	beq.n	8000866 <Get_Position_in_CRL_CRH+0x8a>
 8000812:	e040      	b.n	8000896 <Get_Position_in_CRL_CRH+0xba>
 8000814:	f5b3 6f00 	cmp.w	r3, #2048	; 0x800
 8000818:	d033      	beq.n	8000882 <Get_Position_in_CRL_CRH+0xa6>
 800081a:	f5b3 6f00 	cmp.w	r3, #2048	; 0x800
 800081e:	dc09      	bgt.n	8000834 <Get_Position_in_CRL_CRH+0x58>
 8000820:	f5b3 7f00 	cmp.w	r3, #512	; 0x200
 8000824:	d029      	beq.n	800087a <Get_Position_in_CRL_CRH+0x9e>
 8000826:	f5b3 6f80 	cmp.w	r3, #1024	; 0x400
 800082a:	d028      	beq.n	800087e <Get_Position_in_CRL_CRH+0xa2>
 800082c:	f5b3 7f80 	cmp.w	r3, #256	; 0x100
 8000830:	d021      	beq.n	8000876 <Get_Position_in_CRL_CRH+0x9a>
 8000832:	e030      	b.n	8000896 <Get_Position_in_CRL_CRH+0xba>
 8000834:	f5b3 5f00 	cmp.w	r3, #8192	; 0x2000
 8000838:	d027      	beq.n	800088a <Get_Position_in_CRL_CRH+0xae>
 800083a:	f5b3 5f00 	cmp.w	r3, #8192	; 0x2000
 800083e:	dc03      	bgt.n	8000848 <Get_Position_in_CRL_CRH+0x6c>
 8000840:	f5b3 5f80 	cmp.w	r3, #4096	; 0x1000
 8000844:	d01f      	beq.n	8000886 <Get_Position_in_CRL_CRH+0xaa>
 8000846:	e026      	b.n	8000896 <Get_Position_in_CRL_CRH+0xba>
 8000848:	f5b3 4f80 	cmp.w	r3, #16384	; 0x4000
 800084c:	d01f      	beq.n	800088e <Get_Position_in_CRL_CRH+0xb2>
 800084e:	f5b3 4f00 	cmp.w	r3, #32768	; 0x8000
 8000852:	d01e      	beq.n	8000892 <Get_Position_in_CRL_CRH+0xb6>
 8000854:	e01f      	b.n	8000896 <Get_Position_in_CRL_CRH+0xba>
	{
	case GPIO_PIN0:
		return 0 ;
 8000856:	2300      	movs	r3, #0
 8000858:	e01e      	b.n	8000898 <Get_Position_in_CRL_CRH+0xbc>
		break ;
	case GPIO_PIN1:
		return 4 ;
 800085a:	2304      	movs	r3, #4
 800085c:	e01c      	b.n	8000898 <Get_Position_in_CRL_CRH+0xbc>
		break ;
	case GPIO_PIN2:
		return 8 ;
 800085e:	2308      	movs	r3, #8
 8000860:	e01a      	b.n	8000898 <Get_Position_in_CRL_CRH+0xbc>
		break ;
	case GPIO_PIN3:
		return 12 ;
 8000862:	230c      	movs	r3, #12
 8000864:	e018      	b.n	8000898 <Get_Position_in_CRL_CRH+0xbc>
		break ;

	case GPIO_PIN4:
		return 16 ;
 8000866:	2310      	movs	r3, #16
 8000868:	e016      	b.n	8000898 <Get_Position_in_CRL_CRH+0xbc>
		break ;


	case GPIO_PIN5:
		return 20 ;
 800086a:	2314      	movs	r3, #20
 800086c:	e014      	b.n	8000898 <Get_Position_in_CRL_CRH+0xbc>
		break ;

	case GPIO_PIN6:
		return 24 ;
 800086e:	2318      	movs	r3, #24
 8000870:	e012      	b.n	8000898 <Get_Position_in_CRL_CRH+0xbc>
		break ;

	case GPIO_PIN7:
		return 28 ;
 8000872:	231c      	movs	r3, #28
 8000874:	e010      	b.n	8000898 <Get_Position_in_CRL_CRH+0xbc>
		break ;


	case GPIO_PIN8:
		return 0 ;
 8000876:	2300      	movs	r3, #0
 8000878:	e00e      	b.n	8000898 <Get_Position_in_CRL_CRH+0xbc>
		break ;
	case GPIO_PIN9:
		return 4 ;
 800087a:	2304      	movs	r3, #4
 800087c:	e00c      	b.n	8000898 <Get_Position_in_CRL_CRH+0xbc>
		break ;

	case GPIO_PIN10:
		return 8 ;
 800087e:	2308      	movs	r3, #8
 8000880:	e00a      	b.n	8000898 <Get_Position_in_CRL_CRH+0xbc>
		break ;

	case GPIO_PIN11:
		return 12 ;
 8000882:	230c      	movs	r3, #12
 8000884:	e008      	b.n	8000898 <Get_Position_in_CRL_CRH+0xbc>
		break ;

	case GPIO_PIN12:
		return 16 ;
 8000886:	2310      	movs	r3, #16
 8000888:	e006      	b.n	8000898 <Get_Position_in_CRL_CRH+0xbc>
		break ;


	case GPIO_PIN13:
		return 20 ;
 800088a:	2314      	movs	r3, #20
 800088c:	e004      	b.n	8000898 <Get_Position_in_CRL_CRH+0xbc>
		break ;

	case GPIO_PIN14:
		return 24 ;
 800088e:	2318      	movs	r3, #24
 8000890:	e002      	b.n	8000898 <Get_Position_in_CRL_CRH+0xbc>
		break ;

	case GPIO_PIN15:
		return 28 ;
 8000892:	231c      	movs	r3, #28
 8000894:	e000      	b.n	8000898 <Get_Position_in_CRL_CRH+0xbc>



	}

	return 0 ;
 8000896:	2300      	movs	r3, #0
}
 8000898:	4618      	mov	r0, r3
 800089a:	370c      	adds	r7, #12
 800089c:	46bd      	mov	sp, r7
 800089e:	bc80      	pop	{r7}
 80008a0:	4770      	bx	lr

080008a2 <MCAL_GPIO_Init>:
 *         		 		(Pin number , Mode (I/O) and Freqency ).
 * @retval 			-none
 * Note				-Stm32F103C6 MCU has GPIO A,B,C,D,E Modules
 * 				 		But LQFP48 Package has only GPIO A,B,PART of C/D exported as external PINS from the MCU
 */
void MCAL_GPIO_Init(GPIOx_t *GPIOx , GPIO_Configure_Pin_t* PinNumber_Configuration ){
 80008a2:	b590      	push	{r4, r7, lr}
 80008a4:	b085      	sub	sp, #20
 80008a6:	af00      	add	r7, sp, #0
 80008a8:	6078      	str	r0, [r7, #4]
 80008aa:	6039      	str	r1, [r7, #0]
	//Port configuration register low (GPIOx_CRL) Configure PINS from 0 >>> 7
	//Port configuration register High (GPIOx_CRH) Configure PINS from 8 >>> 15

	volatile uint32_t* Configure_Register = NULL ;
 80008ac:	2300      	movs	r3, #0
 80008ae:	60bb      	str	r3, [r7, #8]
	uint8_t PIN_Config = 0 ;
 80008b0:	2300      	movs	r3, #0
 80008b2:	73fb      	strb	r3, [r7, #15]

	// Find Register to Init Pins
	Configure_Register = (PinNumber_Configuration->GPOI_Pin_Number < GPIO_PIN8 ) ? &GPIOx->CRL : &GPIOx->CRH ;
 80008b4:	683b      	ldr	r3, [r7, #0]
 80008b6:	881b      	ldrh	r3, [r3, #0]
 80008b8:	2bff      	cmp	r3, #255	; 0xff
 80008ba:	d801      	bhi.n	80008c0 <MCAL_GPIO_Init+0x1e>
 80008bc:	687b      	ldr	r3, [r7, #4]
 80008be:	e001      	b.n	80008c4 <MCAL_GPIO_Init+0x22>
 80008c0:	687b      	ldr	r3, [r7, #4]
 80008c2:	3304      	adds	r3, #4
 80008c4:	60bb      	str	r3, [r7, #8]

	// clear CNFy[1:0] MODEy[1:0]
   (*Configure_Register) &= ~(0xF <<Get_Position_in_CRL_CRH(PinNumber_Configuration->GPOI_Pin_Number));
 80008c6:	683b      	ldr	r3, [r7, #0]
 80008c8:	881b      	ldrh	r3, [r3, #0]
 80008ca:	4618      	mov	r0, r3
 80008cc:	f7ff ff86 	bl	80007dc <Get_Position_in_CRL_CRH>
 80008d0:	4603      	mov	r3, r0
 80008d2:	461a      	mov	r2, r3
 80008d4:	230f      	movs	r3, #15
 80008d6:	4093      	lsls	r3, r2
 80008d8:	43da      	mvns	r2, r3
 80008da:	68bb      	ldr	r3, [r7, #8]
 80008dc:	681b      	ldr	r3, [r3, #0]
 80008de:	401a      	ands	r2, r3
 80008e0:	68bb      	ldr	r3, [r7, #8]
 80008e2:	601a      	str	r2, [r3, #0]

   //if Pin is output
   if(PinNumber_Configuration->GPIO_Mode == output_push_pull || PinNumber_Configuration->GPIO_Mode == output_Open_drain || PinNumber_Configuration->GPIO_Mode == Alternate_function_output_Push_pull || PinNumber_Configuration->GPIO_Mode == Alternate_function_output_Open_drain){
 80008e4:	683b      	ldr	r3, [r7, #0]
 80008e6:	789b      	ldrb	r3, [r3, #2]
 80008e8:	2b04      	cmp	r3, #4
 80008ea:	d00b      	beq.n	8000904 <MCAL_GPIO_Init+0x62>
 80008ec:	683b      	ldr	r3, [r7, #0]
 80008ee:	789b      	ldrb	r3, [r3, #2]
 80008f0:	2b05      	cmp	r3, #5
 80008f2:	d007      	beq.n	8000904 <MCAL_GPIO_Init+0x62>
 80008f4:	683b      	ldr	r3, [r7, #0]
 80008f6:	789b      	ldrb	r3, [r3, #2]
 80008f8:	2b06      	cmp	r3, #6
 80008fa:	d003      	beq.n	8000904 <MCAL_GPIO_Init+0x62>
 80008fc:	683b      	ldr	r3, [r7, #0]
 80008fe:	789b      	ldrb	r3, [r3, #2]
 8000900:	2b07      	cmp	r3, #7
 8000902:	d10e      	bne.n	8000922 <MCAL_GPIO_Init+0x80>

	   //Set  CNFy[1:0] MODEy[1:0]
	   PIN_Config = ( (((PinNumber_Configuration->GPIO_Mode - 4 ) << 2) | (PinNumber_Configuration->GPIO_Output_Frequency)) & 0x0F ) ;
 8000904:	683b      	ldr	r3, [r7, #0]
 8000906:	789b      	ldrb	r3, [r3, #2]
 8000908:	3b04      	subs	r3, #4
 800090a:	009b      	lsls	r3, r3, #2
 800090c:	b25a      	sxtb	r2, r3
 800090e:	683b      	ldr	r3, [r7, #0]
 8000910:	78db      	ldrb	r3, [r3, #3]
 8000912:	b25b      	sxtb	r3, r3
 8000914:	4313      	orrs	r3, r2
 8000916:	b25b      	sxtb	r3, r3
 8000918:	b2db      	uxtb	r3, r3
 800091a:	f003 030f 	and.w	r3, r3, #15
 800091e:	73fb      	strb	r3, [r7, #15]
 8000920:	e02c      	b.n	800097c <MCAL_GPIO_Init+0xda>

   }//if pin is input
   else   //MODEy[1:0]
   {
	   if((PinNumber_Configuration->GPIO_Mode == GPIO_Analog_Mode)  || ( PinNumber_Configuration->GPIO_Mode == GPIO_Floating_Input )){
 8000922:	683b      	ldr	r3, [r7, #0]
 8000924:	789b      	ldrb	r3, [r3, #2]
 8000926:	2b00      	cmp	r3, #0
 8000928:	d003      	beq.n	8000932 <MCAL_GPIO_Init+0x90>
 800092a:	683b      	ldr	r3, [r7, #0]
 800092c:	789b      	ldrb	r3, [r3, #2]
 800092e:	2b01      	cmp	r3, #1
 8000930:	d107      	bne.n	8000942 <MCAL_GPIO_Init+0xa0>
		   //Set  CNFy[1:0]= 00   MODEy[1:0] = 00
		   PIN_Config = (((PinNumber_Configuration->GPIO_Mode << 2) | 0x0 ) &0x0F) ;
 8000932:	683b      	ldr	r3, [r7, #0]
 8000934:	789b      	ldrb	r3, [r3, #2]
 8000936:	009b      	lsls	r3, r3, #2
 8000938:	b2db      	uxtb	r3, r3
 800093a:	f003 030f 	and.w	r3, r3, #15
 800093e:	73fb      	strb	r3, [r7, #15]
 8000940:	e01c      	b.n	800097c <MCAL_GPIO_Init+0xda>

	   }else if(PinNumber_Configuration->GPIO_Mode ==  GPIO_Alternate_function_INPUT){
 8000942:	683b      	ldr	r3, [r7, #0]
 8000944:	789b      	ldrb	r3, [r3, #2]
 8000946:	2b08      	cmp	r3, #8
 8000948:	d102      	bne.n	8000950 <MCAL_GPIO_Init+0xae>
		   //Set  CNFy[1:0]= 01   MODEy[1:0] = 00
		   PIN_Config = (((GPIO_Floating_Input  << 2) | 0x0 ) &0x0F) ;  //GPIO_Floating_Input
 800094a:	2304      	movs	r3, #4
 800094c:	73fb      	strb	r3, [r7, #15]
 800094e:	e015      	b.n	800097c <MCAL_GPIO_Init+0xda>


	   }else{  //Input with  pull-down / pull-down
			PIN_Config = ( (((GPIO_Input_pull_up  ) << 2) | 0x0) & 0x0F ) ;
 8000950:	2308      	movs	r3, #8
 8000952:	73fb      	strb	r3, [r7, #15]

			if (PinNumber_Configuration->GPIO_Mode == GPIO_Input_pull_up )
 8000954:	683b      	ldr	r3, [r7, #0]
 8000956:	789b      	ldrb	r3, [r3, #2]
 8000958:	2b02      	cmp	r3, #2
 800095a:	d107      	bne.n	800096c <MCAL_GPIO_Init+0xca>
			{
				//PxODR = 1 Input pull-up
				GPIOx->ODR |= PinNumber_Configuration->GPOI_Pin_Number ;
 800095c:	687b      	ldr	r3, [r7, #4]
 800095e:	68db      	ldr	r3, [r3, #12]
 8000960:	683a      	ldr	r2, [r7, #0]
 8000962:	8812      	ldrh	r2, [r2, #0]
 8000964:	431a      	orrs	r2, r3
 8000966:	687b      	ldr	r3, [r7, #4]
 8000968:	60da      	str	r2, [r3, #12]
 800096a:	e007      	b.n	800097c <MCAL_GPIO_Init+0xda>

			}else
			{
				//PxODR = 0 Input pull-down
				GPIOx->ODR &= ~(PinNumber_Configuration->GPOI_Pin_Number) ;
 800096c:	687b      	ldr	r3, [r7, #4]
 800096e:	68db      	ldr	r3, [r3, #12]
 8000970:	683a      	ldr	r2, [r7, #0]
 8000972:	8812      	ldrh	r2, [r2, #0]
 8000974:	43d2      	mvns	r2, r2
 8000976:	401a      	ands	r2, r3
 8000978:	687b      	ldr	r3, [r7, #4]
 800097a:	60da      	str	r2, [r3, #12]

   }


   // write on the CRL or CRH
   (*Configure_Register) |=  ( (PIN_Config) << Get_Position_in_CRL_CRH(PinNumber_Configuration->GPOI_Pin_Number)   );
 800097c:	7bfc      	ldrb	r4, [r7, #15]
 800097e:	683b      	ldr	r3, [r7, #0]
 8000980:	881b      	ldrh	r3, [r3, #0]
 8000982:	4618      	mov	r0, r3
 8000984:	f7ff ff2a 	bl	80007dc <Get_Position_in_CRL_CRH>
 8000988:	4603      	mov	r3, r0
 800098a:	fa04 f203 	lsl.w	r2, r4, r3
 800098e:	68bb      	ldr	r3, [r7, #8]
 8000990:	681b      	ldr	r3, [r3, #0]
 8000992:	431a      	orrs	r2, r3
 8000994:	68bb      	ldr	r3, [r7, #8]
 8000996:	601a      	str	r2, [r3, #0]
}
 8000998:	bf00      	nop
 800099a:	3714      	adds	r7, #20
 800099c:	46bd      	mov	sp, r7
 800099e:	bd90      	pop	{r4, r7, pc}

080009a0 <SPI1_IRQHandler>:

}

//ISRs
void SPI1_IRQHandler (void)
{
 80009a0:	b580      	push	{r7, lr}
 80009a2:	b082      	sub	sp, #8
 80009a4:	af00      	add	r7, sp, #0
	struct IRQ_SRC   IRQ_Source ;
	IRQ_Source.TXE = ((SPI1->SR & (1 << 1)) >> 1 );
 80009a6:	4b13      	ldr	r3, [pc, #76]	; (80009f4 <SPI1_IRQHandler+0x54>)
 80009a8:	689b      	ldr	r3, [r3, #8]
 80009aa:	085b      	lsrs	r3, r3, #1
 80009ac:	f003 0301 	and.w	r3, r3, #1
 80009b0:	b2da      	uxtb	r2, r3
 80009b2:	793b      	ldrb	r3, [r7, #4]
 80009b4:	f362 0300 	bfi	r3, r2, #0, #1
 80009b8:	713b      	strb	r3, [r7, #4]
	IRQ_Source.RXNE = ((SPI1->SR & (1 << 0)) >> 0 );
 80009ba:	4b0e      	ldr	r3, [pc, #56]	; (80009f4 <SPI1_IRQHandler+0x54>)
 80009bc:	689b      	ldr	r3, [r3, #8]
 80009be:	f003 0301 	and.w	r3, r3, #1
 80009c2:	b2da      	uxtb	r2, r3
 80009c4:	793b      	ldrb	r3, [r7, #4]
 80009c6:	f362 0341 	bfi	r3, r2, #1, #1
 80009ca:	713b      	strb	r3, [r7, #4]
	IRQ_Source.ERRIE = ((SPI1->SR & (1 << 4)) >> 4 );
 80009cc:	4b09      	ldr	r3, [pc, #36]	; (80009f4 <SPI1_IRQHandler+0x54>)
 80009ce:	689b      	ldr	r3, [r3, #8]
 80009d0:	091b      	lsrs	r3, r3, #4
 80009d2:	f003 0301 	and.w	r3, r3, #1
 80009d6:	b2da      	uxtb	r2, r3
 80009d8:	793b      	ldrb	r3, [r7, #4]
 80009da:	f362 0382 	bfi	r3, r2, #2, #1
 80009de:	713b      	strb	r3, [r7, #4]

	G_SPI_Config[SPI1_Index]->Ptr_ISR_Func(IRQ_Source) ;
 80009e0:	4b05      	ldr	r3, [pc, #20]	; (80009f8 <SPI1_IRQHandler+0x58>)
 80009e2:	681b      	ldr	r3, [r3, #0]
 80009e4:	695b      	ldr	r3, [r3, #20]
 80009e6:	7938      	ldrb	r0, [r7, #4]
 80009e8:	4798      	blx	r3

}
 80009ea:	bf00      	nop
 80009ec:	3708      	adds	r7, #8
 80009ee:	46bd      	mov	sp, r7
 80009f0:	bd80      	pop	{r7, pc}
 80009f2:	bf00      	nop
 80009f4:	40013000 	.word	0x40013000
 80009f8:	20000020 	.word	0x20000020

080009fc <SPI2_IRQHandler>:

void SPI2_IRQHandler (void)
{
 80009fc:	b580      	push	{r7, lr}
 80009fe:	b082      	sub	sp, #8
 8000a00:	af00      	add	r7, sp, #0
	    struct IRQ_SRC   IRQ_Source ;

		IRQ_Source.TXE = ((SPI2->SR & (1 << 1)) >> 1 );
 8000a02:	4b13      	ldr	r3, [pc, #76]	; (8000a50 <SPI2_IRQHandler+0x54>)
 8000a04:	689b      	ldr	r3, [r3, #8]
 8000a06:	085b      	lsrs	r3, r3, #1
 8000a08:	f003 0301 	and.w	r3, r3, #1
 8000a0c:	b2da      	uxtb	r2, r3
 8000a0e:	793b      	ldrb	r3, [r7, #4]
 8000a10:	f362 0300 	bfi	r3, r2, #0, #1
 8000a14:	713b      	strb	r3, [r7, #4]
		IRQ_Source.RXNE = ((SPI2->SR & (1 << 0)) >> 0 );
 8000a16:	4b0e      	ldr	r3, [pc, #56]	; (8000a50 <SPI2_IRQHandler+0x54>)
 8000a18:	689b      	ldr	r3, [r3, #8]
 8000a1a:	f003 0301 	and.w	r3, r3, #1
 8000a1e:	b2da      	uxtb	r2, r3
 8000a20:	793b      	ldrb	r3, [r7, #4]
 8000a22:	f362 0341 	bfi	r3, r2, #1, #1
 8000a26:	713b      	strb	r3, [r7, #4]
		IRQ_Source.ERRIE = ((SPI2->SR & (1 << 4)) >> 4 );
 8000a28:	4b09      	ldr	r3, [pc, #36]	; (8000a50 <SPI2_IRQHandler+0x54>)
 8000a2a:	689b      	ldr	r3, [r3, #8]
 8000a2c:	091b      	lsrs	r3, r3, #4
 8000a2e:	f003 0301 	and.w	r3, r3, #1
 8000a32:	b2da      	uxtb	r2, r3
 8000a34:	793b      	ldrb	r3, [r7, #4]
 8000a36:	f362 0382 	bfi	r3, r2, #2, #1
 8000a3a:	713b      	strb	r3, [r7, #4]

	    G_SPI_Config[SPI2_Index]->Ptr_ISR_Func(IRQ_Source) ;
 8000a3c:	4b05      	ldr	r3, [pc, #20]	; (8000a54 <SPI2_IRQHandler+0x58>)
 8000a3e:	685b      	ldr	r3, [r3, #4]
 8000a40:	695b      	ldr	r3, [r3, #20]
 8000a42:	7938      	ldrb	r0, [r7, #4]
 8000a44:	4798      	blx	r3

}
 8000a46:	bf00      	nop
 8000a48:	3708      	adds	r7, #8
 8000a4a:	46bd      	mov	sp, r7
 8000a4c:	bd80      	pop	{r7, pc}
 8000a4e:	bf00      	nop
 8000a50:	40003c00 	.word	0x40003c00
 8000a54:	20000020 	.word	0x20000020

08000a58 <USART1_IRQHandler>:



					//ISRs
void USART1_IRQHandler (void)
{
 8000a58:	b580      	push	{r7, lr}
 8000a5a:	af00      	add	r7, sp, #0

	G_USART_Config->Ptr_ISR_Func () ;
 8000a5c:	4b02      	ldr	r3, [pc, #8]	; (8000a68 <USART1_IRQHandler+0x10>)
 8000a5e:	681b      	ldr	r3, [r3, #0]
 8000a60:	691b      	ldr	r3, [r3, #16]
 8000a62:	4798      	blx	r3

}
 8000a64:	bf00      	nop
 8000a66:	bd80      	pop	{r7, pc}
 8000a68:	20000028 	.word	0x20000028

08000a6c <USART2_IRQHandler>:

void USART2_IRQHandler (void)
{
 8000a6c:	b580      	push	{r7, lr}
 8000a6e:	af00      	add	r7, sp, #0
	G_USART_Config->Ptr_ISR_Func () ;
 8000a70:	4b02      	ldr	r3, [pc, #8]	; (8000a7c <USART2_IRQHandler+0x10>)
 8000a72:	681b      	ldr	r3, [r3, #0]
 8000a74:	691b      	ldr	r3, [r3, #16]
 8000a76:	4798      	blx	r3

}
 8000a78:	bf00      	nop
 8000a7a:	bd80      	pop	{r7, pc}
 8000a7c:	20000028 	.word	0x20000028

08000a80 <USART3_IRQHandler>:
void USART3_IRQHandler (void)
{
 8000a80:	b580      	push	{r7, lr}
 8000a82:	af00      	add	r7, sp, #0
	G_USART_Config->Ptr_ISR_Func () ;
 8000a84:	4b02      	ldr	r3, [pc, #8]	; (8000a90 <USART3_IRQHandler+0x10>)
 8000a86:	681b      	ldr	r3, [r3, #0]
 8000a88:	691b      	ldr	r3, [r3, #16]
 8000a8a:	4798      	blx	r3


}
 8000a8c:	bf00      	nop
 8000a8e:	bd80      	pop	{r7, pc}
 8000a90:	20000028 	.word	0x20000028

08000a94 <__libc_init_array>:
 8000a94:	b570      	push	{r4, r5, r6, lr}
 8000a96:	2500      	movs	r5, #0
 8000a98:	4e0c      	ldr	r6, [pc, #48]	; (8000acc <__libc_init_array+0x38>)
 8000a9a:	4c0d      	ldr	r4, [pc, #52]	; (8000ad0 <__libc_init_array+0x3c>)
 8000a9c:	1ba4      	subs	r4, r4, r6
 8000a9e:	10a4      	asrs	r4, r4, #2
 8000aa0:	42a5      	cmp	r5, r4
 8000aa2:	d109      	bne.n	8000ab8 <__libc_init_array+0x24>
 8000aa4:	f000 f81a 	bl	8000adc <_init>
 8000aa8:	2500      	movs	r5, #0
 8000aaa:	4e0a      	ldr	r6, [pc, #40]	; (8000ad4 <__libc_init_array+0x40>)
 8000aac:	4c0a      	ldr	r4, [pc, #40]	; (8000ad8 <__libc_init_array+0x44>)
 8000aae:	1ba4      	subs	r4, r4, r6
 8000ab0:	10a4      	asrs	r4, r4, #2
 8000ab2:	42a5      	cmp	r5, r4
 8000ab4:	d105      	bne.n	8000ac2 <__libc_init_array+0x2e>
 8000ab6:	bd70      	pop	{r4, r5, r6, pc}
 8000ab8:	f856 3025 	ldr.w	r3, [r6, r5, lsl #2]
 8000abc:	4798      	blx	r3
 8000abe:	3501      	adds	r5, #1
 8000ac0:	e7ee      	b.n	8000aa0 <__libc_init_array+0xc>
 8000ac2:	f856 3025 	ldr.w	r3, [r6, r5, lsl #2]
 8000ac6:	4798      	blx	r3
 8000ac8:	3501      	adds	r5, #1
 8000aca:	e7f2      	b.n	8000ab2 <__libc_init_array+0x1e>
 8000acc:	08000b00 	.word	0x08000b00
 8000ad0:	08000b00 	.word	0x08000b00
 8000ad4:	08000b00 	.word	0x08000b00
 8000ad8:	08000b04 	.word	0x08000b04

08000adc <_init>:
 8000adc:	b5f8      	push	{r3, r4, r5, r6, r7, lr}
 8000ade:	bf00      	nop
 8000ae0:	bcf8      	pop	{r3, r4, r5, r6, r7}
 8000ae2:	bc08      	pop	{r3}
 8000ae4:	469e      	mov	lr, r3
 8000ae6:	4770      	bx	lr

08000ae8 <_fini>:
 8000ae8:	b5f8      	push	{r3, r4, r5, r6, r7, lr}
 8000aea:	bf00      	nop
 8000aec:	bcf8      	pop	{r3, r4, r5, r6, r7}
 8000aee:	bc08      	pop	{r3}
 8000af0:	469e      	mov	lr, r3
 8000af2:	4770      	bx	lr
