
Drivers.elf:     file format elf32-avr

Sections:
Idx Name          Size      VMA       LMA       File off  Algn
  0 .text         000006a0  00000000  00000000  00000074  2**1
                  CONTENTS, ALLOC, LOAD, READONLY, CODE
  1 .data         00000000  00800060  00800060  00000714  2**0
                  CONTENTS, ALLOC, LOAD, DATA
  2 .bss          0000000a  00800060  00800060  00000714  2**0
                  ALLOC
  3 .comment      00000030  00000000  00000000  00000714  2**0
                  CONTENTS, READONLY
  4 .note.gnu.avr.deviceinfo 0000003c  00000000  00000000  00000744  2**2
                  CONTENTS, READONLY
  5 .debug_aranges 00000198  00000000  00000000  00000780  2**0
                  CONTENTS, READONLY, DEBUGGING
  6 .debug_info   00001b02  00000000  00000000  00000918  2**0
                  CONTENTS, READONLY, DEBUGGING
  7 .debug_abbrev 00000b4e  00000000  00000000  0000241a  2**0
                  CONTENTS, READONLY, DEBUGGING
  8 .debug_line   00000c38  00000000  00000000  00002f68  2**0
                  CONTENTS, READONLY, DEBUGGING
  9 .debug_frame  00000424  00000000  00000000  00003ba0  2**2
                  CONTENTS, READONLY, DEBUGGING
 10 .debug_str    00000747  00000000  00000000  00003fc4  2**0
                  CONTENTS, READONLY, DEBUGGING
 11 .debug_loc    00000ada  00000000  00000000  0000470b  2**0
                  CONTENTS, READONLY, DEBUGGING
 12 .debug_ranges 00000138  00000000  00000000  000051e5  2**0
                  CONTENTS, READONLY, DEBUGGING

Disassembly of section .text:

00000000 <__vectors>:
   0:	0c 94 2a 00 	jmp	0x54	; 0x54 <__ctors_end>
   4:	0c 94 dc 01 	jmp	0x3b8	; 0x3b8 <__vector_1>
   8:	0c 94 03 02 	jmp	0x406	; 0x406 <__vector_2>
   c:	0c 94 2a 02 	jmp	0x454	; 0x454 <__vector_3>
  10:	0c 94 47 00 	jmp	0x8e	; 0x8e <__bad_interrupt>
  14:	0c 94 47 00 	jmp	0x8e	; 0x8e <__bad_interrupt>
  18:	0c 94 47 00 	jmp	0x8e	; 0x8e <__bad_interrupt>
  1c:	0c 94 47 00 	jmp	0x8e	; 0x8e <__bad_interrupt>
  20:	0c 94 47 00 	jmp	0x8e	; 0x8e <__bad_interrupt>
  24:	0c 94 47 00 	jmp	0x8e	; 0x8e <__bad_interrupt>
  28:	0c 94 47 00 	jmp	0x8e	; 0x8e <__bad_interrupt>
  2c:	0c 94 47 00 	jmp	0x8e	; 0x8e <__bad_interrupt>
  30:	0c 94 47 00 	jmp	0x8e	; 0x8e <__bad_interrupt>
  34:	0c 94 47 00 	jmp	0x8e	; 0x8e <__bad_interrupt>
  38:	0c 94 47 00 	jmp	0x8e	; 0x8e <__bad_interrupt>
  3c:	0c 94 47 00 	jmp	0x8e	; 0x8e <__bad_interrupt>
  40:	0c 94 47 00 	jmp	0x8e	; 0x8e <__bad_interrupt>
  44:	0c 94 47 00 	jmp	0x8e	; 0x8e <__bad_interrupt>
  48:	0c 94 47 00 	jmp	0x8e	; 0x8e <__bad_interrupt>
  4c:	0c 94 47 00 	jmp	0x8e	; 0x8e <__bad_interrupt>
  50:	0c 94 47 00 	jmp	0x8e	; 0x8e <__bad_interrupt>

00000054 <__ctors_end>:
  54:	11 24       	eor	r1, r1
  56:	1f be       	out	0x3f, r1	; 63
  58:	cf e5       	ldi	r28, 0x5F	; 95
  5a:	d8 e0       	ldi	r29, 0x08	; 8
  5c:	de bf       	out	0x3e, r29	; 62
  5e:	cd bf       	out	0x3d, r28	; 61

00000060 <__do_copy_data>:
  60:	10 e0       	ldi	r17, 0x00	; 0
  62:	a0 e6       	ldi	r26, 0x60	; 96
  64:	b0 e0       	ldi	r27, 0x00	; 0
  66:	e0 ea       	ldi	r30, 0xA0	; 160
  68:	f6 e0       	ldi	r31, 0x06	; 6
  6a:	02 c0       	rjmp	.+4      	; 0x70 <__do_copy_data+0x10>
  6c:	05 90       	lpm	r0, Z+
  6e:	0d 92       	st	X+, r0
  70:	a0 36       	cpi	r26, 0x60	; 96
  72:	b1 07       	cpc	r27, r17
  74:	d9 f7       	brne	.-10     	; 0x6c <__do_copy_data+0xc>

00000076 <__do_clear_bss>:
  76:	20 e0       	ldi	r18, 0x00	; 0
  78:	a0 e6       	ldi	r26, 0x60	; 96
  7a:	b0 e0       	ldi	r27, 0x00	; 0
  7c:	01 c0       	rjmp	.+2      	; 0x80 <.do_clear_bss_start>

0000007e <.do_clear_bss_loop>:
  7e:	1d 92       	st	X+, r1

00000080 <.do_clear_bss_start>:
  80:	aa 36       	cpi	r26, 0x6A	; 106
  82:	b2 07       	cpc	r27, r18
  84:	e1 f7       	brne	.-8      	; 0x7e <.do_clear_bss_loop>
  86:	0e 94 d7 01 	call	0x3ae	; 0x3ae <main>
  8a:	0c 94 4e 03 	jmp	0x69c	; 0x69c <_exit>

0000008e <__bad_interrupt>:
  8e:	0c 94 00 00 	jmp	0	; 0x0 <__vectors>

00000092 <Delay_ms>:
	}
}


void SPI_Received_ISR(void){
	uint8_t received = SPI->SPDR; 
  92:	cf 93       	push	r28
  94:	df 93       	push	r29
  96:	00 d0       	rcall	.+0      	; 0x98 <Delay_ms+0x6>
  98:	00 d0       	rcall	.+0      	; 0x9a <Delay_ms+0x8>
  9a:	cd b7       	in	r28, 0x3d	; 61
  9c:	de b7       	in	r29, 0x3e	; 62
  9e:	1a 82       	std	Y+2, r1	; 0x02
  a0:	19 82       	std	Y+1, r1	; 0x01
  a2:	14 c0       	rjmp	.+40     	; 0xcc <Delay_ms+0x3a>
  a4:	1c 82       	std	Y+4, r1	; 0x04
  a6:	1b 82       	std	Y+3, r1	; 0x03
  a8:	06 c0       	rjmp	.+12     	; 0xb6 <Delay_ms+0x24>
  aa:	2b 81       	ldd	r18, Y+3	; 0x03
  ac:	3c 81       	ldd	r19, Y+4	; 0x04
  ae:	2f 5f       	subi	r18, 0xFF	; 255
  b0:	3f 4f       	sbci	r19, 0xFF	; 255
  b2:	3c 83       	std	Y+4, r19	; 0x04
  b4:	2b 83       	std	Y+3, r18	; 0x03
  b6:	2b 81       	ldd	r18, Y+3	; 0x03
  b8:	3c 81       	ldd	r19, Y+4	; 0x04
  ba:	28 3e       	cpi	r18, 0xE8	; 232
  bc:	33 40       	sbci	r19, 0x03	; 3
  be:	a8 f3       	brcs	.-22     	; 0xaa <Delay_ms+0x18>
  c0:	29 81       	ldd	r18, Y+1	; 0x01
  c2:	3a 81       	ldd	r19, Y+2	; 0x02
  c4:	2f 5f       	subi	r18, 0xFF	; 255
  c6:	3f 4f       	sbci	r19, 0xFF	; 255
  c8:	3a 83       	std	Y+2, r19	; 0x02
  ca:	29 83       	std	Y+1, r18	; 0x01
  cc:	29 81       	ldd	r18, Y+1	; 0x01
  ce:	3a 81       	ldd	r19, Y+2	; 0x02
  d0:	28 17       	cp	r18, r24
  d2:	39 07       	cpc	r19, r25
  d4:	38 f3       	brcs	.-50     	; 0xa4 <Delay_ms+0x12>
  d6:	0f 90       	pop	r0
  d8:	0f 90       	pop	r0
  da:	0f 90       	pop	r0
  dc:	0f 90       	pop	r0
  de:	df 91       	pop	r29
  e0:	cf 91       	pop	r28
  e2:	08 95       	ret

000000e4 <execute>:
}


void execute(unsigned char cmd, unsigned char data , SPI_t *SPIx)
{
  e4:	0f 93       	push	r16
  e6:	1f 93       	push	r17
  e8:	cf 93       	push	r28
  ea:	df 93       	push	r29
  ec:	08 2f       	mov	r16, r24
  ee:	16 2f       	mov	r17, r22
  f0:	ea 01       	movw	r28, r20
	MCAL_IO_WritePin(IOB,SS, RESET_PIN);
  f2:	40 e0       	ldi	r20, 0x00	; 0
  f4:	60 e1       	ldi	r22, 0x10	; 16
  f6:	86 e3       	ldi	r24, 0x36	; 54
  f8:	90 e0       	ldi	r25, 0x00	; 0
  fa:	0e 94 83 02 	call	0x506	; 0x506 <MCAL_IO_WritePin>
	SPIx->SPDR = cmd;
  fe:	0a 83       	std	Y+2, r16	; 0x02
	while (!(SPIx->SPSR & (1 << 7)));
 100:	89 81       	ldd	r24, Y+1	; 0x01
 102:	88 23       	and	r24, r24
 104:	ec f7       	brge	.-6      	; 0x100 <execute+0x1c>
	SPIx->SPDR = data;
 106:	1a 83       	std	Y+2, r17	; 0x02
	while (!(SPIx->SPSR & (1 << 7)));
 108:	89 81       	ldd	r24, Y+1	; 0x01
 10a:	88 23       	and	r24, r24
 10c:	ec f7       	brge	.-6      	; 0x108 <execute+0x24>
	MCAL_IO_WritePin(IOB,SS, SET_PIN);
 10e:	41 e0       	ldi	r20, 0x01	; 1
 110:	60 e1       	ldi	r22, 0x10	; 16
 112:	86 e3       	ldi	r24, 0x36	; 54
 114:	90 e0       	ldi	r25, 0x00	; 0
 116:	0e 94 83 02 	call	0x506	; 0x506 <MCAL_IO_WritePin>
	}
 11a:	df 91       	pop	r29
 11c:	cf 91       	pop	r28
 11e:	1f 91       	pop	r17
 120:	0f 91       	pop	r16
 122:	08 95       	ret

00000124 <App_Init>:


/* ================= App Initialization ================= */
void App_Init(void)
{
 124:	cf 93       	push	r28
 126:	df 93       	push	r29
 128:	cd b7       	in	r28, 0x3d	; 61
 12a:	de b7       	in	r29, 0x3e	; 62
 12c:	2a 97       	sbiw	r28, 0x0a	; 10
 12e:	0f b6       	in	r0, 0x3f	; 63
 130:	f8 94       	cli
 132:	de bf       	out	0x3e, r29	; 62
 134:	0f be       	out	0x3f, r0	; 63
 136:	cd bf       	out	0x3d, r28	; 61
	LCD_Init();
 138:	0e 94 b4 01 	call	0x368	; 0x368 <LCD_Init>

	SPI_Config_t SPI_Config;

	SPI_Config.SPI_Mode = SPI_Master;
 13c:	80 e1       	ldi	r24, 0x10	; 16
 13e:	89 83       	std	Y+1, r24	; 0x01
	SPI_Config.Data_Order = MSB;
 140:	1a 82       	std	Y+2, r1	; 0x02
	SPI_Config.Clock_Polarity = Rising_Falling;
 142:	1c 82       	std	Y+4, r1	; 0x04
 144:	1b 82       	std	Y+3, r1	; 0x03
	SPI_Config.Clock_Phase    = Sample_Setup;
 146:	1d 82       	std	Y+5, r1	; 0x05
	SPI_Config.Clock_Rate = Normal_Fosc_64;
 148:	82 e0       	ldi	r24, 0x02	; 2
 14a:	8e 83       	std	Y+6, r24	; 0x06
	SPI_Config.Speed = USART_Speed_Normal;
 14c:	1f 82       	std	Y+7, r1	; 0x07
	SPI_Config.IRQ_Enable = USART_IRQ_Disable;
 14e:	18 86       	std	Y+8, r1	; 0x08
	SPI_Config.Ptr_ISR_Func = NULL;
 150:	1a 86       	std	Y+10, r1	; 0x0a
 152:	19 86       	std	Y+9, r1	; 0x09

	 MCAL_SPI_Init(SPI , &SPI_Config);
 154:	be 01       	movw	r22, r28
 156:	6f 5f       	subi	r22, 0xFF	; 255
 158:	7f 4f       	sbci	r23, 0xFF	; 255
 15a:	8d e2       	ldi	r24, 0x2D	; 45
 15c:	90 e0       	ldi	r25, 0x00	; 0
 15e:	0e 94 95 02 	call	0x52a	; 0x52a <MCAL_SPI_Init>
	 MCAL_SPI_IO_Set_Pins(SPI);
 162:	8d e2       	ldi	r24, 0x2D	; 45
 164:	90 e0       	ldi	r25, 0x00	; 0
 166:	0e 94 e5 02 	call	0x5ca	; 0x5ca <MCAL_SPI_IO_Set_Pins>
	
	

	    execute(0x09, 0xFF,SPI);
 16a:	4d e2       	ldi	r20, 0x2D	; 45
 16c:	50 e0       	ldi	r21, 0x00	; 0
 16e:	6f ef       	ldi	r22, 0xFF	; 255
 170:	89 e0       	ldi	r24, 0x09	; 9
 172:	0e 94 72 00 	call	0xe4	; 0xe4 <execute>
	    execute(0x0A, 0xFF,SPI);
 176:	4d e2       	ldi	r20, 0x2D	; 45
 178:	50 e0       	ldi	r21, 0x00	; 0
 17a:	6f ef       	ldi	r22, 0xFF	; 255
 17c:	8a e0       	ldi	r24, 0x0A	; 10
 17e:	0e 94 72 00 	call	0xe4	; 0xe4 <execute>
	    execute(0x0B, 0xF7,SPI);
 182:	4d e2       	ldi	r20, 0x2D	; 45
 184:	50 e0       	ldi	r21, 0x00	; 0
 186:	67 ef       	ldi	r22, 0xF7	; 247
 188:	8b e0       	ldi	r24, 0x0B	; 11
 18a:	0e 94 72 00 	call	0xe4	; 0xe4 <execute>
	    execute(0x0C, 0x01,SPI);
 18e:	4d e2       	ldi	r20, 0x2D	; 45
 190:	50 e0       	ldi	r21, 0x00	; 0
 192:	61 e0       	ldi	r22, 0x01	; 1
 194:	8c e0       	ldi	r24, 0x0C	; 12
 196:	0e 94 72 00 	call	0xe4	; 0xe4 <execute>
	
}
 19a:	2a 96       	adiw	r28, 0x0a	; 10
 19c:	0f b6       	in	r0, 0x3f	; 63
 19e:	f8 94       	cli
 1a0:	de bf       	out	0x3e, r29	; 62
 1a2:	0f be       	out	0x3f, r0	; 63
 1a4:	cd bf       	out	0x3d, r28	; 61
 1a6:	df 91       	pop	r29
 1a8:	cf 91       	pop	r28
 1aa:	08 95       	ret

000001ac <App_Run>:


/* ================= App Main Loop ================= */
void App_Run(void)
{
		for (index_display = 1; index_display < 9; index_display++)
 1ac:	81 e0       	ldi	r24, 0x01	; 1
 1ae:	80 93 61 00 	sts	0x0061, r24	; 0x800061 <index_display>
 1b2:	0f c0       	rjmp	.+30     	; 0x1d2 <App_Run+0x26>
		execute(index_display, counter++,SPI);
 1b4:	60 91 60 00 	lds	r22, 0x0060	; 0x800060 <__DATA_REGION_ORIGIN__>
 1b8:	91 e0       	ldi	r25, 0x01	; 1
 1ba:	96 0f       	add	r25, r22
 1bc:	90 93 60 00 	sts	0x0060, r25	; 0x800060 <__DATA_REGION_ORIGIN__>
 1c0:	4d e2       	ldi	r20, 0x2D	; 45
 1c2:	50 e0       	ldi	r21, 0x00	; 0
 1c4:	0e 94 72 00 	call	0xe4	; 0xe4 <execute>


/* ================= App Main Loop ================= */
void App_Run(void)
{
		for (index_display = 1; index_display < 9; index_display++)
 1c8:	80 91 61 00 	lds	r24, 0x0061	; 0x800061 <index_display>
 1cc:	8f 5f       	subi	r24, 0xFF	; 255
 1ce:	80 93 61 00 	sts	0x0061, r24	; 0x800061 <index_display>
 1d2:	80 91 61 00 	lds	r24, 0x0061	; 0x800061 <index_display>
 1d6:	89 30       	cpi	r24, 0x09	; 9
 1d8:	68 f3       	brcs	.-38     	; 0x1b4 <App_Run+0x8>
		execute(index_display, counter++,SPI);
		Delay_ms(1000);
 1da:	88 ee       	ldi	r24, 0xE8	; 232
 1dc:	93 e0       	ldi	r25, 0x03	; 3
 1de:	0e 94 49 00 	call	0x92	; 0x92 <Delay_ms>
 1e2:	08 95       	ret

000001e4 <LCD_IO_init>:





void LCD_IO_init(){
 1e4:	1f 93       	push	r17
 1e6:	cf 93       	push	r28
 1e8:	df 93       	push	r29
 1ea:	00 d0       	rcall	.+0      	; 0x1ec <LCD_IO_init+0x8>
 1ec:	cd b7       	in	r28, 0x3d	; 61
 1ee:	de b7       	in	r29, 0x3e	; 62
	IO_Configure_Pin_t PinNumber_Configuration;

	//init  Control pins as output
	PinNumber_Configuration.IO_Pin_Number = Register_Select;
 1f0:	12 e0       	ldi	r17, 0x02	; 2
 1f2:	19 83       	std	Y+1, r17	; 0x01
	PinNumber_Configuration.IO_Mode = output_Low;
 1f4:	1a 83       	std	Y+2, r17	; 0x02
	MCAL_IO_Init(IOB, &PinNumber_Configuration);
 1f6:	be 01       	movw	r22, r28
 1f8:	6f 5f       	subi	r22, 0xFF	; 255
 1fa:	7f 4f       	sbci	r23, 0xFF	; 255
 1fc:	86 e3       	ldi	r24, 0x36	; 54
 1fe:	90 e0       	ldi	r25, 0x00	; 0
 200:	0e 94 51 02 	call	0x4a2	; 0x4a2 <MCAL_IO_Init>

	PinNumber_Configuration.IO_Pin_Number = Read_Write;
 204:	84 e0       	ldi	r24, 0x04	; 4
 206:	89 83       	std	Y+1, r24	; 0x01
	PinNumber_Configuration.IO_Mode = output_Low;
 208:	1a 83       	std	Y+2, r17	; 0x02
	MCAL_IO_Init(IOB, &PinNumber_Configuration);
 20a:	be 01       	movw	r22, r28
 20c:	6f 5f       	subi	r22, 0xFF	; 255
 20e:	7f 4f       	sbci	r23, 0xFF	; 255
 210:	86 e3       	ldi	r24, 0x36	; 54
 212:	90 e0       	ldi	r25, 0x00	; 0
 214:	0e 94 51 02 	call	0x4a2	; 0x4a2 <MCAL_IO_Init>

	PinNumber_Configuration.IO_Pin_Number = Enable;
 218:	88 e0       	ldi	r24, 0x08	; 8
 21a:	89 83       	std	Y+1, r24	; 0x01
	PinNumber_Configuration.IO_Mode = output_Low;
 21c:	1a 83       	std	Y+2, r17	; 0x02
	MCAL_IO_Init(IOB, &PinNumber_Configuration);
 21e:	be 01       	movw	r22, r28
 220:	6f 5f       	subi	r22, 0xFF	; 255
 222:	7f 4f       	sbci	r23, 0xFF	; 255
 224:	86 e3       	ldi	r24, 0x36	; 54
 226:	90 e0       	ldi	r25, 0x00	; 0
 228:	0e 94 51 02 	call	0x4a2	; 0x4a2 <MCAL_IO_Init>



	//init  Data pins as low output
	PinNumber_Configuration.IO_Pin_Number = IO_PIN4;
 22c:	80 e1       	ldi	r24, 0x10	; 16
 22e:	89 83       	std	Y+1, r24	; 0x01
	PinNumber_Configuration.IO_Mode = output_Low;
 230:	1a 83       	std	Y+2, r17	; 0x02
	MCAL_IO_Init(IOA, &PinNumber_Configuration);
 232:	be 01       	movw	r22, r28
 234:	6f 5f       	subi	r22, 0xFF	; 255
 236:	7f 4f       	sbci	r23, 0xFF	; 255
 238:	89 e3       	ldi	r24, 0x39	; 57
 23a:	90 e0       	ldi	r25, 0x00	; 0
 23c:	0e 94 51 02 	call	0x4a2	; 0x4a2 <MCAL_IO_Init>

	PinNumber_Configuration.IO_Pin_Number = IO_PIN5;
 240:	80 e2       	ldi	r24, 0x20	; 32
 242:	89 83       	std	Y+1, r24	; 0x01
	PinNumber_Configuration.IO_Mode = output_Low;
 244:	1a 83       	std	Y+2, r17	; 0x02
	MCAL_IO_Init(IOA, &PinNumber_Configuration);
 246:	be 01       	movw	r22, r28
 248:	6f 5f       	subi	r22, 0xFF	; 255
 24a:	7f 4f       	sbci	r23, 0xFF	; 255
 24c:	89 e3       	ldi	r24, 0x39	; 57
 24e:	90 e0       	ldi	r25, 0x00	; 0
 250:	0e 94 51 02 	call	0x4a2	; 0x4a2 <MCAL_IO_Init>

	PinNumber_Configuration.IO_Pin_Number = IO_PIN6;
 254:	80 e4       	ldi	r24, 0x40	; 64
 256:	89 83       	std	Y+1, r24	; 0x01
	PinNumber_Configuration.IO_Mode = output_Low;
 258:	1a 83       	std	Y+2, r17	; 0x02
	MCAL_IO_Init(IOA, &PinNumber_Configuration);
 25a:	be 01       	movw	r22, r28
 25c:	6f 5f       	subi	r22, 0xFF	; 255
 25e:	7f 4f       	sbci	r23, 0xFF	; 255
 260:	89 e3       	ldi	r24, 0x39	; 57
 262:	90 e0       	ldi	r25, 0x00	; 0
 264:	0e 94 51 02 	call	0x4a2	; 0x4a2 <MCAL_IO_Init>

	PinNumber_Configuration.IO_Pin_Number = IO_PIN7;
 268:	80 e8       	ldi	r24, 0x80	; 128
 26a:	89 83       	std	Y+1, r24	; 0x01
	PinNumber_Configuration.IO_Mode = output_Low;
 26c:	1a 83       	std	Y+2, r17	; 0x02
	MCAL_IO_Init(IOA, &PinNumber_Configuration);
 26e:	be 01       	movw	r22, r28
 270:	6f 5f       	subi	r22, 0xFF	; 255
 272:	7f 4f       	sbci	r23, 0xFF	; 255
 274:	89 e3       	ldi	r24, 0x39	; 57
 276:	90 e0       	ldi	r25, 0x00	; 0
 278:	0e 94 51 02 	call	0x4a2	; 0x4a2 <MCAL_IO_Init>



	// write 0 om control pins
	MCAL_IO_WritePin(IOB, Enable, RESET_PIN);
 27c:	40 e0       	ldi	r20, 0x00	; 0
 27e:	68 e0       	ldi	r22, 0x08	; 8
 280:	86 e3       	ldi	r24, 0x36	; 54
 282:	90 e0       	ldi	r25, 0x00	; 0
 284:	0e 94 83 02 	call	0x506	; 0x506 <MCAL_IO_WritePin>
	MCAL_IO_WritePin(IOB, Register_Select, RESET_PIN);
 288:	40 e0       	ldi	r20, 0x00	; 0
 28a:	62 e0       	ldi	r22, 0x02	; 2
 28c:	86 e3       	ldi	r24, 0x36	; 54
 28e:	90 e0       	ldi	r25, 0x00	; 0
 290:	0e 94 83 02 	call	0x506	; 0x506 <MCAL_IO_WritePin>
	MCAL_IO_WritePin(IOB, Read_Write, RESET_PIN);
 294:	40 e0       	ldi	r20, 0x00	; 0
 296:	64 e0       	ldi	r22, 0x04	; 4
 298:	86 e3       	ldi	r24, 0x36	; 54
 29a:	90 e0       	ldi	r25, 0x00	; 0
 29c:	0e 94 83 02 	call	0x506	; 0x506 <MCAL_IO_WritePin>
	
}
 2a0:	0f 90       	pop	r0
 2a2:	0f 90       	pop	r0
 2a4:	df 91       	pop	r29
 2a6:	cf 91       	pop	r28
 2a8:	1f 91       	pop	r17
 2aa:	08 95       	ret

000002ac <Send_Pulse_toLCD>:
	Write_Command_onLCD(LCD_BEGIN_AT_FIRST_ROW);
	Write_Command_onLCD(LCD_DISP_ON_CURSOR_BLINK);
}

void Send_Pulse_toLCD(void){
	MCAL_IO_WritePin(LCD_CONTROL_PORTS, Enable, RESET_PIN);
 2ac:	40 e0       	ldi	r20, 0x00	; 0
 2ae:	68 e0       	ldi	r22, 0x08	; 8
 2b0:	86 e3       	ldi	r24, 0x36	; 54
 2b2:	90 e0       	ldi	r25, 0x00	; 0
 2b4:	0e 94 83 02 	call	0x506	; 0x506 <MCAL_IO_WritePin>
	_delay_ms(2);
 2b8:	20 e0       	ldi	r18, 0x00	; 0
 2ba:	30 e0       	ldi	r19, 0x00	; 0
 2bc:	09 c0       	rjmp	.+18     	; 0x2d0 <Send_Pulse_toLCD+0x24>
 2be:	01 96       	adiw	r24, 0x01	; 1
 2c0:	02 c0       	rjmp	.+4      	; 0x2c6 <Send_Pulse_toLCD+0x1a>
 2c2:	80 e0       	ldi	r24, 0x00	; 0
 2c4:	90 e0       	ldi	r25, 0x00	; 0
 2c6:	8f 3f       	cpi	r24, 0xFF	; 255
 2c8:	91 05       	cpc	r25, r1
 2ca:	c8 f3       	brcs	.-14     	; 0x2be <Send_Pulse_toLCD+0x12>
 2cc:	2f 5f       	subi	r18, 0xFF	; 255
 2ce:	3f 4f       	sbci	r19, 0xFF	; 255
 2d0:	22 30       	cpi	r18, 0x02	; 2
 2d2:	31 05       	cpc	r19, r1
 2d4:	b0 f3       	brcs	.-20     	; 0x2c2 <Send_Pulse_toLCD+0x16>
	MCAL_IO_WritePin(LCD_CONTROL_PORTS, Enable, SET_PIN);
 2d6:	41 e0       	ldi	r20, 0x01	; 1
 2d8:	68 e0       	ldi	r22, 0x08	; 8
 2da:	86 e3       	ldi	r24, 0x36	; 54
 2dc:	90 e0       	ldi	r25, 0x00	; 0
 2de:	0e 94 83 02 	call	0x506	; 0x506 <MCAL_IO_WritePin>
	_delay_ms(2);
 2e2:	20 e0       	ldi	r18, 0x00	; 0
 2e4:	30 e0       	ldi	r19, 0x00	; 0
 2e6:	09 c0       	rjmp	.+18     	; 0x2fa <Send_Pulse_toLCD+0x4e>
 2e8:	01 96       	adiw	r24, 0x01	; 1
 2ea:	02 c0       	rjmp	.+4      	; 0x2f0 <Send_Pulse_toLCD+0x44>
 2ec:	80 e0       	ldi	r24, 0x00	; 0
 2ee:	90 e0       	ldi	r25, 0x00	; 0
 2f0:	8f 3f       	cpi	r24, 0xFF	; 255
 2f2:	91 05       	cpc	r25, r1
 2f4:	c8 f3       	brcs	.-14     	; 0x2e8 <Send_Pulse_toLCD+0x3c>
 2f6:	2f 5f       	subi	r18, 0xFF	; 255
 2f8:	3f 4f       	sbci	r19, 0xFF	; 255
 2fa:	22 30       	cpi	r18, 0x02	; 2
 2fc:	31 05       	cpc	r19, r1
 2fe:	b0 f3       	brcs	.-20     	; 0x2ec <Send_Pulse_toLCD+0x40>
}
 300:	08 95       	ret

00000302 <Write_Command_onLCD>:

void Clear_LCD_Screen(void){
	Write_Command_onLCD(LCD_CLEAR_SCREEN);
}

void Write_Command_onLCD(uint8_t Command){
 302:	cf 93       	push	r28
 304:	c8 2f       	mov	r28, r24
	LCD_DATA_PORTS->PORT = (LCD_DATA_PORTS->PORT & 0x0F) | (Command & 0xF0);
 306:	8b b3       	in	r24, 0x1b	; 27
 308:	8f 70       	andi	r24, 0x0F	; 15
 30a:	9c 2f       	mov	r25, r28
 30c:	90 7f       	andi	r25, 0xF0	; 240
 30e:	89 2b       	or	r24, r25
 310:	8b bb       	out	0x1b, r24	; 27
	MCAL_IO_WritePin(LCD_CONTROL_PORTS, Register_Select, RESET_PIN);
 312:	40 e0       	ldi	r20, 0x00	; 0
 314:	62 e0       	ldi	r22, 0x02	; 2
 316:	86 e3       	ldi	r24, 0x36	; 54
 318:	90 e0       	ldi	r25, 0x00	; 0
 31a:	0e 94 83 02 	call	0x506	; 0x506 <MCAL_IO_WritePin>
	MCAL_IO_WritePin(LCD_CONTROL_PORTS, Read_Write, RESET_PIN);
 31e:	40 e0       	ldi	r20, 0x00	; 0
 320:	64 e0       	ldi	r22, 0x04	; 4
 322:	86 e3       	ldi	r24, 0x36	; 54
 324:	90 e0       	ldi	r25, 0x00	; 0
 326:	0e 94 83 02 	call	0x506	; 0x506 <MCAL_IO_WritePin>
	Send_Pulse_toLCD();
 32a:	0e 94 56 01 	call	0x2ac	; 0x2ac <Send_Pulse_toLCD>

	LCD_DATA_PORTS->PORT = (LCD_DATA_PORTS->PORT & 0x0F) | ((Command << 4) & 0xF0);
 32e:	2b b3       	in	r18, 0x1b	; 27
 330:	30 e1       	ldi	r19, 0x10	; 16
 332:	c3 9f       	mul	r28, r19
 334:	c0 01       	movw	r24, r0
 336:	11 24       	eor	r1, r1
 338:	92 2f       	mov	r25, r18
 33a:	9f 70       	andi	r25, 0x0F	; 15
 33c:	89 2b       	or	r24, r25
 33e:	8b bb       	out	0x1b, r24	; 27
	MCAL_IO_WritePin(LCD_CONTROL_PORTS, Register_Select, RESET_PIN);
 340:	40 e0       	ldi	r20, 0x00	; 0
 342:	62 e0       	ldi	r22, 0x02	; 2
 344:	86 e3       	ldi	r24, 0x36	; 54
 346:	90 e0       	ldi	r25, 0x00	; 0
 348:	0e 94 83 02 	call	0x506	; 0x506 <MCAL_IO_WritePin>
	MCAL_IO_WritePin(LCD_CONTROL_PORTS, Read_Write, RESET_PIN);
 34c:	40 e0       	ldi	r20, 0x00	; 0
 34e:	64 e0       	ldi	r22, 0x04	; 4
 350:	86 e3       	ldi	r24, 0x36	; 54
 352:	90 e0       	ldi	r25, 0x00	; 0
 354:	0e 94 83 02 	call	0x506	; 0x506 <MCAL_IO_WritePin>
	Send_Pulse_toLCD();
 358:	0e 94 56 01 	call	0x2ac	; 0x2ac <Send_Pulse_toLCD>
}
 35c:	cf 91       	pop	r28
 35e:	08 95       	ret

00000360 <Clear_LCD_Screen>:
	MCAL_IO_WritePin(LCD_CONTROL_PORTS, Enable, SET_PIN);
	_delay_ms(2);
}

void Clear_LCD_Screen(void){
	Write_Command_onLCD(LCD_CLEAR_SCREEN);
 360:	81 e0       	ldi	r24, 0x01	; 1
 362:	0e 94 81 01 	call	0x302	; 0x302 <Write_Command_onLCD>
 366:	08 95       	ret

00000368 <LCD_Init>:
	MCAL_IO_WritePin(IOB, Register_Select, RESET_PIN);
	MCAL_IO_WritePin(IOB, Read_Write, RESET_PIN);
	
}
void LCD_Init(void){
	_delay_ms(20);
 368:	20 e0       	ldi	r18, 0x00	; 0
 36a:	30 e0       	ldi	r19, 0x00	; 0
 36c:	09 c0       	rjmp	.+18     	; 0x380 <LCD_Init+0x18>
 36e:	01 96       	adiw	r24, 0x01	; 1
 370:	02 c0       	rjmp	.+4      	; 0x376 <LCD_Init+0xe>
 372:	80 e0       	ldi	r24, 0x00	; 0
 374:	90 e0       	ldi	r25, 0x00	; 0
 376:	8f 3f       	cpi	r24, 0xFF	; 255
 378:	91 05       	cpc	r25, r1
 37a:	c8 f3       	brcs	.-14     	; 0x36e <LCD_Init+0x6>
 37c:	2f 5f       	subi	r18, 0xFF	; 255
 37e:	3f 4f       	sbci	r19, 0xFF	; 255
 380:	24 31       	cpi	r18, 0x14	; 20
 382:	31 05       	cpc	r19, r1
 384:	b0 f3       	brcs	.-20     	; 0x372 <LCD_Init+0xa>
	LCD_IO_init();
 386:	0e 94 f2 00 	call	0x1e4	; 0x1e4 <LCD_IO_init>
	Clear_LCD_Screen();
 38a:	0e 94 b0 01 	call	0x360	; 0x360 <Clear_LCD_Screen>
	Write_Command_onLCD(0x02);
 38e:	82 e0       	ldi	r24, 0x02	; 2
 390:	0e 94 81 01 	call	0x302	; 0x302 <Write_Command_onLCD>
	Write_Command_onLCD(LCD_FUNCTION_4BIT_2LINES);
 394:	88 e2       	ldi	r24, 0x28	; 40
 396:	0e 94 81 01 	call	0x302	; 0x302 <Write_Command_onLCD>
	Write_Command_onLCD(LCD_ENTRY_MODE);
 39a:	86 e0       	ldi	r24, 0x06	; 6
 39c:	0e 94 81 01 	call	0x302	; 0x302 <Write_Command_onLCD>
	Write_Command_onLCD(LCD_BEGIN_AT_FIRST_ROW);
 3a0:	80 e8       	ldi	r24, 0x80	; 128
 3a2:	0e 94 81 01 	call	0x302	; 0x302 <Write_Command_onLCD>
	Write_Command_onLCD(LCD_DISP_ON_CURSOR_BLINK);
 3a6:	8f e0       	ldi	r24, 0x0F	; 15
 3a8:	0e 94 81 01 	call	0x302	; 0x302 <Write_Command_onLCD>
 3ac:	08 95       	ret

000003ae <main>:
/* For  Atmega32 Simulation */ 
int main(void) {
	


 App_Init();
 3ae:	0e 94 92 00 	call	0x124	; 0x124 <App_Init>


	while (1) {
			

		 App_Run();
 3b2:	0e 94 d6 00 	call	0x1ac	; 0x1ac <App_Run>
 3b6:	fd cf       	rjmp	.-6      	; 0x3b2 <main+0x4>

000003b8 <__vector_1>:


// ISRs
// ISRs
void __vector_1(void) __attribute__((signal, used)); // INT0
void __vector_1(void) {
 3b8:	1f 92       	push	r1
 3ba:	0f 92       	push	r0
 3bc:	0f b6       	in	r0, 0x3f	; 63
 3be:	0f 92       	push	r0
 3c0:	11 24       	eor	r1, r1
 3c2:	2f 93       	push	r18
 3c4:	3f 93       	push	r19
 3c6:	4f 93       	push	r20
 3c8:	5f 93       	push	r21
 3ca:	6f 93       	push	r22
 3cc:	7f 93       	push	r23
 3ce:	8f 93       	push	r24
 3d0:	9f 93       	push	r25
 3d2:	af 93       	push	r26
 3d4:	bf 93       	push	r27
 3d6:	ef 93       	push	r30
 3d8:	ff 93       	push	r31
	
	 /*if (GP_IRQ_FUNC_CALLBACK[0])*/
	  GP_IRQ_FUNC_CALLBACK[0](); 
 3da:	e0 91 62 00 	lds	r30, 0x0062	; 0x800062 <GP_IRQ_FUNC_CALLBACK>
 3de:	f0 91 63 00 	lds	r31, 0x0063	; 0x800063 <GP_IRQ_FUNC_CALLBACK+0x1>
 3e2:	09 95       	icall
	 }
 3e4:	ff 91       	pop	r31
 3e6:	ef 91       	pop	r30
 3e8:	bf 91       	pop	r27
 3ea:	af 91       	pop	r26
 3ec:	9f 91       	pop	r25
 3ee:	8f 91       	pop	r24
 3f0:	7f 91       	pop	r23
 3f2:	6f 91       	pop	r22
 3f4:	5f 91       	pop	r21
 3f6:	4f 91       	pop	r20
 3f8:	3f 91       	pop	r19
 3fa:	2f 91       	pop	r18
 3fc:	0f 90       	pop	r0
 3fe:	0f be       	out	0x3f, r0	; 63
 400:	0f 90       	pop	r0
 402:	1f 90       	pop	r1
 404:	18 95       	reti

00000406 <__vector_2>:

void __vector_2(void) __attribute__((signal, used)); // INT1
void __vector_2(void) { 
 406:	1f 92       	push	r1
 408:	0f 92       	push	r0
 40a:	0f b6       	in	r0, 0x3f	; 63
 40c:	0f 92       	push	r0
 40e:	11 24       	eor	r1, r1
 410:	2f 93       	push	r18
 412:	3f 93       	push	r19
 414:	4f 93       	push	r20
 416:	5f 93       	push	r21
 418:	6f 93       	push	r22
 41a:	7f 93       	push	r23
 41c:	8f 93       	push	r24
 41e:	9f 93       	push	r25
 420:	af 93       	push	r26
 422:	bf 93       	push	r27
 424:	ef 93       	push	r30
 426:	ff 93       	push	r31
	/*if (GP_IRQ_FUNC_CALLBACK[1])*/
	 GP_IRQ_FUNC_CALLBACK[1](); 
 428:	e0 91 64 00 	lds	r30, 0x0064	; 0x800064 <GP_IRQ_FUNC_CALLBACK+0x2>
 42c:	f0 91 65 00 	lds	r31, 0x0065	; 0x800065 <GP_IRQ_FUNC_CALLBACK+0x3>
 430:	09 95       	icall
	}
 432:	ff 91       	pop	r31
 434:	ef 91       	pop	r30
 436:	bf 91       	pop	r27
 438:	af 91       	pop	r26
 43a:	9f 91       	pop	r25
 43c:	8f 91       	pop	r24
 43e:	7f 91       	pop	r23
 440:	6f 91       	pop	r22
 442:	5f 91       	pop	r21
 444:	4f 91       	pop	r20
 446:	3f 91       	pop	r19
 448:	2f 91       	pop	r18
 44a:	0f 90       	pop	r0
 44c:	0f be       	out	0x3f, r0	; 63
 44e:	0f 90       	pop	r0
 450:	1f 90       	pop	r1
 452:	18 95       	reti

00000454 <__vector_3>:

void __vector_3(void) __attribute__((signal, used)); // INT2
void __vector_3(void) { 
 454:	1f 92       	push	r1
 456:	0f 92       	push	r0
 458:	0f b6       	in	r0, 0x3f	; 63
 45a:	0f 92       	push	r0
 45c:	11 24       	eor	r1, r1
 45e:	2f 93       	push	r18
 460:	3f 93       	push	r19
 462:	4f 93       	push	r20
 464:	5f 93       	push	r21
 466:	6f 93       	push	r22
 468:	7f 93       	push	r23
 46a:	8f 93       	push	r24
 46c:	9f 93       	push	r25
 46e:	af 93       	push	r26
 470:	bf 93       	push	r27
 472:	ef 93       	push	r30
 474:	ff 93       	push	r31
	/*if (GP_IRQ_FUNC_CALLBACK[2])*/
	 GP_IRQ_FUNC_CALLBACK[2](); 
 476:	e0 91 66 00 	lds	r30, 0x0066	; 0x800066 <GP_IRQ_FUNC_CALLBACK+0x4>
 47a:	f0 91 67 00 	lds	r31, 0x0067	; 0x800067 <GP_IRQ_FUNC_CALLBACK+0x5>
 47e:	09 95       	icall
 480:	ff 91       	pop	r31
 482:	ef 91       	pop	r30
 484:	bf 91       	pop	r27
 486:	af 91       	pop	r26
 488:	9f 91       	pop	r25
 48a:	8f 91       	pop	r24
 48c:	7f 91       	pop	r23
 48e:	6f 91       	pop	r22
 490:	5f 91       	pop	r21
 492:	4f 91       	pop	r20
 494:	3f 91       	pop	r19
 496:	2f 91       	pop	r18
 498:	0f 90       	pop	r0
 49a:	0f be       	out	0x3f, r0	; 63
 49c:	0f 90       	pop	r0
 49e:	1f 90       	pop	r1
 4a0:	18 95       	reti

000004a2 <MCAL_IO_Init>:
 * @retval 				-the input port VALUE
 * Note					-none
 */
uint8_t MCAL_IO_ReadPort(IOx_t *IOx){
	return IOx->PIN;  // return value on pin from pin0 to pin7 
}
 4a2:	fc 01       	movw	r30, r24
 4a4:	db 01       	movw	r26, r22
 4a6:	11 96       	adiw	r26, 0x01	; 1
 4a8:	8c 91       	ld	r24, X
 4aa:	11 97       	sbiw	r26, 0x01	; 1
 4ac:	81 11       	cpse	r24, r1
 4ae:	0b c0       	rjmp	.+22     	; 0x4c6 <MCAL_IO_Init+0x24>
 4b0:	91 81       	ldd	r25, Z+1	; 0x01
 4b2:	8c 91       	ld	r24, X
 4b4:	80 95       	com	r24
 4b6:	89 23       	and	r24, r25
 4b8:	81 83       	std	Z+1, r24	; 0x01
 4ba:	92 81       	ldd	r25, Z+2	; 0x02
 4bc:	8c 91       	ld	r24, X
 4be:	80 95       	com	r24
 4c0:	89 23       	and	r24, r25
 4c2:	82 83       	std	Z+2, r24	; 0x02
 4c4:	08 95       	ret
 4c6:	81 30       	cpi	r24, 0x01	; 1
 4c8:	51 f4       	brne	.+20     	; 0x4de <MCAL_IO_Init+0x3c>
 4ca:	91 81       	ldd	r25, Z+1	; 0x01
 4cc:	8c 91       	ld	r24, X
 4ce:	80 95       	com	r24
 4d0:	89 23       	and	r24, r25
 4d2:	81 83       	std	Z+1, r24	; 0x01
 4d4:	92 81       	ldd	r25, Z+2	; 0x02
 4d6:	8c 91       	ld	r24, X
 4d8:	89 2b       	or	r24, r25
 4da:	82 83       	std	Z+2, r24	; 0x02
 4dc:	08 95       	ret
 4de:	91 81       	ldd	r25, Z+1	; 0x01
 4e0:	8c 91       	ld	r24, X
 4e2:	89 2b       	or	r24, r25
 4e4:	81 83       	std	Z+1, r24	; 0x01
 4e6:	11 96       	adiw	r26, 0x01	; 1
 4e8:	8c 91       	ld	r24, X
 4ea:	11 97       	sbiw	r26, 0x01	; 1
 4ec:	83 30       	cpi	r24, 0x03	; 3
 4ee:	29 f4       	brne	.+10     	; 0x4fa <MCAL_IO_Init+0x58>
 4f0:	92 81       	ldd	r25, Z+2	; 0x02
 4f2:	8c 91       	ld	r24, X
 4f4:	89 2b       	or	r24, r25
 4f6:	82 83       	std	Z+2, r24	; 0x02
 4f8:	08 95       	ret
 4fa:	92 81       	ldd	r25, Z+2	; 0x02
 4fc:	8c 91       	ld	r24, X
 4fe:	80 95       	com	r24
 500:	89 23       	and	r24, r25
 502:	82 83       	std	Z+2, r24	; 0x02
 504:	08 95       	ret

00000506 <MCAL_IO_WritePin>:
 *@param [in] 			-PinNumber:  specifies the port bit to read. Set by @ref IO_PINS_define
 *@param [in] 			-Value: Value
 *@retval 				-none
 * Note					-none
 */
void MCAL_IO_WritePin(IOx_t *IOx, uint8_t PinNumber, uint8_t Value){
 506:	fc 01       	movw	r30, r24
	if(Value == SET_PIN){        //user will send 1 or 0 on  bit we should take this value and put it in port register 
 508:	41 30       	cpi	r20, 0x01	; 1
 50a:	21 f4       	brne	.+8      	; 0x514 <MCAL_IO_WritePin+0xe>
		IOx->PORT |= PinNumber;
 50c:	82 81       	ldd	r24, Z+2	; 0x02
 50e:	68 2b       	or	r22, r24
 510:	62 83       	std	Z+2, r22	; 0x02
 512:	08 95       	ret
		} else {
		IOx->PORT &= ~PinNumber;
 514:	92 81       	ldd	r25, Z+2	; 0x02
 516:	60 95       	com	r22
 518:	69 23       	and	r22, r25
 51a:	62 83       	std	Z+2, r22	; 0x02
 51c:	08 95       	ret

0000051e <MCAL_SPI_DeInit>:
	SPIx->SPDR = data;
	// Wait for transmission complete (SPIF bit in SPSR)
	while (!(SPIx->SPSR & (1 << 7)));
	// Return received data
	return SPIx->SPDR;
}
 51e:	fc 01       	movw	r30, r24
 520:	10 82       	st	Z, r1
 522:	81 81       	ldd	r24, Z+1	; 0x01
 524:	8e 7f       	andi	r24, 0xFE	; 254
 526:	81 83       	std	Z+1, r24	; 0x01
 528:	08 95       	ret

0000052a <MCAL_SPI_Init>:
 52a:	0f 93       	push	r16
 52c:	1f 93       	push	r17
 52e:	cf 93       	push	r28
 530:	df 93       	push	r29
 532:	ec 01       	movw	r28, r24
 534:	8b 01       	movw	r16, r22
 536:	0e 94 8f 02 	call	0x51e	; 0x51e <MCAL_SPI_DeInit>
 53a:	88 81       	ld	r24, Y
 53c:	80 64       	ori	r24, 0x40	; 64
 53e:	88 83       	st	Y, r24
 540:	f8 01       	movw	r30, r16
 542:	80 81       	ld	r24, Z
 544:	80 31       	cpi	r24, 0x10	; 16
 546:	19 f4       	brne	.+6      	; 0x54e <MCAL_SPI_Init+0x24>
 548:	88 81       	ld	r24, Y
 54a:	80 61       	ori	r24, 0x10	; 16
 54c:	88 83       	st	Y, r24
 54e:	f8 01       	movw	r30, r16
 550:	81 81       	ldd	r24, Z+1	; 0x01
 552:	80 32       	cpi	r24, 0x20	; 32
 554:	19 f4       	brne	.+6      	; 0x55c <MCAL_SPI_Init+0x32>
 556:	88 81       	ld	r24, Y
 558:	80 62       	ori	r24, 0x20	; 32
 55a:	88 83       	st	Y, r24
 55c:	88 81       	ld	r24, Y
 55e:	87 7f       	andi	r24, 0xF7	; 247
 560:	88 83       	st	Y, r24
 562:	98 81       	ld	r25, Y
 564:	f8 01       	movw	r30, r16
 566:	82 81       	ldd	r24, Z+2	; 0x02
 568:	89 2b       	or	r24, r25
 56a:	88 83       	st	Y, r24
 56c:	88 81       	ld	r24, Y
 56e:	8b 7f       	andi	r24, 0xFB	; 251
 570:	88 83       	st	Y, r24
 572:	98 81       	ld	r25, Y
 574:	84 81       	ldd	r24, Z+4	; 0x04
 576:	89 2b       	or	r24, r25
 578:	88 83       	st	Y, r24
 57a:	86 81       	ldd	r24, Z+6	; 0x06
 57c:	81 30       	cpi	r24, 0x01	; 1
 57e:	41 f4       	brne	.+16     	; 0x590 <MCAL_SPI_Init+0x66>
 580:	89 81       	ldd	r24, Y+1	; 0x01
 582:	81 60       	ori	r24, 0x01	; 1
 584:	89 83       	std	Y+1, r24	; 0x01
 586:	98 81       	ld	r25, Y
 588:	85 81       	ldd	r24, Z+5	; 0x05
 58a:	89 2b       	or	r24, r25
 58c:	88 83       	st	Y, r24
 58e:	08 c0       	rjmp	.+16     	; 0x5a0 <MCAL_SPI_Init+0x76>
 590:	89 81       	ldd	r24, Y+1	; 0x01
 592:	8e 7f       	andi	r24, 0xFE	; 254
 594:	89 83       	std	Y+1, r24	; 0x01
 596:	98 81       	ld	r25, Y
 598:	f8 01       	movw	r30, r16
 59a:	85 81       	ldd	r24, Z+5	; 0x05
 59c:	89 2b       	or	r24, r25
 59e:	88 83       	st	Y, r24
 5a0:	f8 01       	movw	r30, r16
 5a2:	87 81       	ldd	r24, Z+7	; 0x07
 5a4:	88 23       	and	r24, r24
 5a6:	61 f0       	breq	.+24     	; 0x5c0 <MCAL_SPI_Init+0x96>
 5a8:	88 81       	ld	r24, Y
 5aa:	80 68       	ori	r24, 0x80	; 128
 5ac:	88 83       	st	Y, r24
 5ae:	8f b7       	in	r24, 0x3f	; 63
 5b0:	80 68       	ori	r24, 0x80	; 128
 5b2:	8f bf       	out	0x3f, r24	; 63
 5b4:	80 85       	ldd	r24, Z+8	; 0x08
 5b6:	91 85       	ldd	r25, Z+9	; 0x09
 5b8:	90 93 69 00 	sts	0x0069, r25	; 0x800069 <SPI_Callback+0x1>
 5bc:	80 93 68 00 	sts	0x0068, r24	; 0x800068 <SPI_Callback>
 5c0:	df 91       	pop	r29
 5c2:	cf 91       	pop	r28
 5c4:	1f 91       	pop	r17
 5c6:	0f 91       	pop	r16
 5c8:	08 95       	ret

000005ca <MCAL_SPI_IO_Set_Pins>:


void MCAL_SPI_IO_Set_Pins(SPI_t *SPIx ){
 5ca:	1f 93       	push	r17
 5cc:	cf 93       	push	r28
 5ce:	df 93       	push	r29
 5d0:	00 d0       	rcall	.+0      	; 0x5d2 <MCAL_SPI_IO_Set_Pins+0x8>
 5d2:	cd b7       	in	r28, 0x3d	; 61
 5d4:	de b7       	in	r29, 0x3e	; 62
	IO_Configure_Pin_t PinNumber_Configuration ;
	
	if(SPIx->SPCR & (1<<4) )
 5d6:	fc 01       	movw	r30, r24
 5d8:	80 81       	ld	r24, Z
 5da:	84 ff       	sbrs	r24, 4
 5dc:	30 c0       	rjmp	.+96     	; 0x63e <MCAL_SPI_IO_Set_Pins+0x74>
	{
		PinNumber_Configuration.IO_Pin_Number =  SS ;
 5de:	80 e1       	ldi	r24, 0x10	; 16
 5e0:	89 83       	std	Y+1, r24	; 0x01
		PinNumber_Configuration.IO_Mode = output_Hight ; 
 5e2:	13 e0       	ldi	r17, 0x03	; 3
 5e4:	1a 83       	std	Y+2, r17	; 0x02
		MCAL_IO_WritePin(SPI_PORT, SS, SET_PIN);  // Master idle HIGH
 5e6:	41 e0       	ldi	r20, 0x01	; 1
 5e8:	60 e1       	ldi	r22, 0x10	; 16
 5ea:	86 e3       	ldi	r24, 0x36	; 54
 5ec:	90 e0       	ldi	r25, 0x00	; 0
 5ee:	0e 94 83 02 	call	0x506	; 0x506 <MCAL_IO_WritePin>

		
		MCAL_IO_Init( SPI_PORT,  &PinNumber_Configuration);
 5f2:	be 01       	movw	r22, r28
 5f4:	6f 5f       	subi	r22, 0xFF	; 255
 5f6:	7f 4f       	sbci	r23, 0xFF	; 255
 5f8:	86 e3       	ldi	r24, 0x36	; 54
 5fa:	90 e0       	ldi	r25, 0x00	; 0
 5fc:	0e 94 51 02 	call	0x4a2	; 0x4a2 <MCAL_IO_Init>
		
		PinNumber_Configuration.IO_Pin_Number =  MOSI ;
 600:	80 e2       	ldi	r24, 0x20	; 32
 602:	89 83       	std	Y+1, r24	; 0x01
		PinNumber_Configuration.IO_Mode = 	output_Hight ;
 604:	1a 83       	std	Y+2, r17	; 0x02
		
		MCAL_IO_Init( SPI_PORT,  &PinNumber_Configuration);
 606:	be 01       	movw	r22, r28
 608:	6f 5f       	subi	r22, 0xFF	; 255
 60a:	7f 4f       	sbci	r23, 0xFF	; 255
 60c:	86 e3       	ldi	r24, 0x36	; 54
 60e:	90 e0       	ldi	r25, 0x00	; 0
 610:	0e 94 51 02 	call	0x4a2	; 0x4a2 <MCAL_IO_Init>
		
		PinNumber_Configuration.IO_Pin_Number =  MISO ;
 614:	80 e4       	ldi	r24, 0x40	; 64
 616:	89 83       	std	Y+1, r24	; 0x01
		PinNumber_Configuration.IO_Mode =  input_without_pull_up ;
 618:	1a 82       	std	Y+2, r1	; 0x02
			
		MCAL_IO_Init( SPI_PORT,  &PinNumber_Configuration);
 61a:	be 01       	movw	r22, r28
 61c:	6f 5f       	subi	r22, 0xFF	; 255
 61e:	7f 4f       	sbci	r23, 0xFF	; 255
 620:	86 e3       	ldi	r24, 0x36	; 54
 622:	90 e0       	ldi	r25, 0x00	; 0
 624:	0e 94 51 02 	call	0x4a2	; 0x4a2 <MCAL_IO_Init>
			
		PinNumber_Configuration.IO_Pin_Number =  SCLK ;
 628:	80 e8       	ldi	r24, 0x80	; 128
 62a:	89 83       	std	Y+1, r24	; 0x01
		PinNumber_Configuration.IO_Mode = output_Hight;
 62c:	1a 83       	std	Y+2, r17	; 0x02
		
		MCAL_IO_Init( SPI_PORT,  &PinNumber_Configuration);
 62e:	be 01       	movw	r22, r28
 630:	6f 5f       	subi	r22, 0xFF	; 255
 632:	7f 4f       	sbci	r23, 0xFF	; 255
 634:	86 e3       	ldi	r24, 0x36	; 54
 636:	90 e0       	ldi	r25, 0x00	; 0
 638:	0e 94 51 02 	call	0x4a2	; 0x4a2 <MCAL_IO_Init>
 63c:	29 c0       	rjmp	.+82     	; 0x690 <MCAL_SPI_IO_Set_Pins+0xc6>
	}else{
		PinNumber_Configuration.IO_Pin_Number =  SS ;
 63e:	80 e1       	ldi	r24, 0x10	; 16
 640:	89 83       	std	Y+1, r24	; 0x01
		PinNumber_Configuration.IO_Mode =input_without_pull_up ;
 642:	1a 82       	std	Y+2, r1	; 0x02
				
		MCAL_IO_Init( SPI_PORT,  &PinNumber_Configuration);
 644:	be 01       	movw	r22, r28
 646:	6f 5f       	subi	r22, 0xFF	; 255
 648:	7f 4f       	sbci	r23, 0xFF	; 255
 64a:	86 e3       	ldi	r24, 0x36	; 54
 64c:	90 e0       	ldi	r25, 0x00	; 0
 64e:	0e 94 51 02 	call	0x4a2	; 0x4a2 <MCAL_IO_Init>

		PinNumber_Configuration.IO_Pin_Number =  MOSI ;
 652:	80 e2       	ldi	r24, 0x20	; 32
 654:	89 83       	std	Y+1, r24	; 0x01
		PinNumber_Configuration.IO_Mode = 	input_without_pull_up ;
 656:	1a 82       	std	Y+2, r1	; 0x02
				
		MCAL_IO_Init( SPI_PORT,  &PinNumber_Configuration);
 658:	be 01       	movw	r22, r28
 65a:	6f 5f       	subi	r22, 0xFF	; 255
 65c:	7f 4f       	sbci	r23, 0xFF	; 255
 65e:	86 e3       	ldi	r24, 0x36	; 54
 660:	90 e0       	ldi	r25, 0x00	; 0
 662:	0e 94 51 02 	call	0x4a2	; 0x4a2 <MCAL_IO_Init>
		
		PinNumber_Configuration.IO_Pin_Number =  MISO ;
 666:	80 e4       	ldi	r24, 0x40	; 64
 668:	89 83       	std	Y+1, r24	; 0x01
		PinNumber_Configuration.IO_Mode = output_Hight ;
 66a:	83 e0       	ldi	r24, 0x03	; 3
 66c:	8a 83       	std	Y+2, r24	; 0x02
				
		MCAL_IO_Init( SPI_PORT,  &PinNumber_Configuration);
 66e:	be 01       	movw	r22, r28
 670:	6f 5f       	subi	r22, 0xFF	; 255
 672:	7f 4f       	sbci	r23, 0xFF	; 255
 674:	86 e3       	ldi	r24, 0x36	; 54
 676:	90 e0       	ldi	r25, 0x00	; 0
 678:	0e 94 51 02 	call	0x4a2	; 0x4a2 <MCAL_IO_Init>
				
		PinNumber_Configuration.IO_Pin_Number =  SCLK ;
 67c:	80 e8       	ldi	r24, 0x80	; 128
 67e:	89 83       	std	Y+1, r24	; 0x01
		PinNumber_Configuration.IO_Mode = input_without_pull_up;
 680:	1a 82       	std	Y+2, r1	; 0x02
				
		MCAL_IO_Init( SPI_PORT,  &PinNumber_Configuration);
 682:	be 01       	movw	r22, r28
 684:	6f 5f       	subi	r22, 0xFF	; 255
 686:	7f 4f       	sbci	r23, 0xFF	; 255
 688:	86 e3       	ldi	r24, 0x36	; 54
 68a:	90 e0       	ldi	r25, 0x00	; 0
 68c:	0e 94 51 02 	call	0x4a2	; 0x4a2 <MCAL_IO_Init>
	}	
}
 690:	0f 90       	pop	r0
 692:	0f 90       	pop	r0
 694:	df 91       	pop	r29
 696:	cf 91       	pop	r28
 698:	1f 91       	pop	r17
 69a:	08 95       	ret

0000069c <_exit>:
 69c:	f8 94       	cli

0000069e <__stop_program>:
 69e:	ff cf       	rjmp	.-2      	; 0x69e <__stop_program>
